ARM GAS  C:\Users\addis\AppData\Local\Temp\ccSizEqd.s 			page 1


   1              		.syntax unified
   2              		.cpu cortex-m3
   3              		.fpu softvfp
   4              		.eabi_attribute 20, 1
   5              		.eabi_attribute 21, 1
   6              		.eabi_attribute 23, 3
   7              		.eabi_attribute 24, 1
   8              		.eabi_attribute 25, 1
   9              		.eabi_attribute 26, 1
  10              		.eabi_attribute 30, 1
  11              		.eabi_attribute 34, 1
  12              		.eabi_attribute 18, 4
  13              		.thumb
  14              		.file	"keyboard.c"
  15              		.text
  16              	.Ltext0:
  17              		.cfi_sections	.debug_frame
  18              		.section	.text.KeyboardDecodeData,"ax",%progbits
  19              		.align	2
  20              		.global	KeyboardDecodeData
  21              		.thumb
  22              		.thumb_func
  23              		.type	KeyboardDecodeData, %function
  24              	KeyboardDecodeData:
  25              	.LFB0:
  26              		.file 1 ".\\keyboard.c"
   1:.\keyboard.c  **** /* ========================================
   2:.\keyboard.c  ****  *
   3:.\keyboard.c  ****  * Copyright YOUR COMPANY, THE YEAR
   4:.\keyboard.c  ****  * All Rights Reserved
   5:.\keyboard.c  ****  * UNPUBLISHED, LICENSED SOFTWARE.
   6:.\keyboard.c  ****  *
   7:.\keyboard.c  ****  * CONFIDENTIAL AND PROPRIETARY INFORMATION
   8:.\keyboard.c  ****  * WHICH IS THE PROPERTY OF your company.
   9:.\keyboard.c  ****  *
  10:.\keyboard.c  ****  * ========================================
  11:.\keyboard.c  **** */
  12:.\keyboard.c  **** #include "Keyboard.h"
  13:.\keyboard.c  **** 
  14:.\keyboard.c  **** //// State names used in the KeyboardDecodeData() function
  15:.\keyboard.c  **** #define KBD_START_SEQ	0
  16:.\keyboard.c  **** #define KBD_BREAK_SEQ	1
  17:.\keyboard.c  **** #define KBD_E0_SEQ		2
  18:.\keyboard.c  **** #define	KBD_E0_F0_SEQ	3
  19:.\keyboard.c  **** #define KBD_PAUSE_A		4
  20:.\keyboard.c  **** #define KBD_PAUSE_B		5
  21:.\keyboard.c  **** #define	KBD_PAUSE_C		6
  22:.\keyboard.c  **** #define KBD_PAUSE_D		7
  23:.\keyboard.c  **** 
  24:.\keyboard.c  **** //// All external global variables (identified by names in LeadingCaps)
  25:.\keyboard.c  **** extern uint8 NumLock;
  26:.\keyboard.c  **** extern uint8 CapsLock;
  27:.\keyboard.c  **** extern uint8 ScrollLock;
  28:.\keyboard.c  **** extern uint8 ShiftDown;
  29:.\keyboard.c  **** extern uint8 CtrlDown;
  30:.\keyboard.c  **** extern uint8 AltDown;
  31:.\keyboard.c  **** extern uint8 PianoMode;
ARM GAS  C:\Users\addis\AppData\Local\Temp\ccSizEqd.s 			page 2


  32:.\keyboard.c  **** 
  33:.\keyboard.c  **** //----------------------------------------------------------------------------
  34:.\keyboard.c  **** // Scan Code to printable ASCII mapping
  35:.\keyboard.c  **** //
  36:.\keyboard.c  **** // Defines an array variable that maps all single-byte scan codes to their
  37:.\keyboard.c  **** // respective ASCII values.
  38:.\keyboard.c  **** //
  39:.\keyboard.c  **** // The 1st column is the the scan code value.
  40:.\keyboard.c  **** // The 2nd column gives the ASCII scan code value with Shift pressed.
  41:.\keyboard.c  **** // The 3rd column gives the ASCII scan code value without Shift pressed.
  42:.\keyboard.c  **** //----------------------------------------------------------------------------
  43:.\keyboard.c  **** unsigned char const ShiftableScancode[ ][3] = {
  44:.\keyboard.c  **** 	'`',	'~',	0x0E,
  45:.\keyboard.c  **** 	'1',	'!',	0x16,
  46:.\keyboard.c  **** 	'2',	'@',	0x1E,
  47:.\keyboard.c  **** 	'3',	'#',	0x26,
  48:.\keyboard.c  **** 	'4',	'$',	0x25,
  49:.\keyboard.c  **** 	'5',	'%',	0x2E,
  50:.\keyboard.c  **** 	'6',	'^',	0x36,
  51:.\keyboard.c  **** 	'7',	'&',	0x3D,
  52:.\keyboard.c  **** 	'8',	'*',	0x3E,
  53:.\keyboard.c  **** 	'9',	'(',	0x46,
  54:.\keyboard.c  **** 	'0',	')',	0x45,
  55:.\keyboard.c  **** 	'-',	'_',	0x4E,
  56:.\keyboard.c  **** 	'=',	'+',	0X55,
  57:.\keyboard.c  **** 	'[',	'{',	0x54,
  58:.\keyboard.c  **** 	']',	'}',	0x5B,
  59:.\keyboard.c  **** 	'\\',	'|',	0x5D,
  60:.\keyboard.c  **** 	';',	':',	0x4C,
  61:.\keyboard.c  **** 	'\'',	'\"',	0x52,
  62:.\keyboard.c  **** 	',',	'<',	0x41,
  63:.\keyboard.c  **** 	'.',	'>',	0x49,
  64:.\keyboard.c  **** 	'/',	'?',	0x4A,
  65:.\keyboard.c  **** 	' ',	' ',	0x29, // Space
  66:.\keyboard.c  **** 	0x09,	0x09,	0x0D, // Tab
  67:.\keyboard.c  **** 	0x00,	0x00,	0x00  // Indicates end of this array while searching
  68:.\keyboard.c  **** };
  69:.\keyboard.c  **** 
  70:.\keyboard.c  **** //----------------------------------------------------------------------------
  71:.\keyboard.c  **** // Scan Code to printable alphabet ASCII mapping
  72:.\keyboard.c  **** //
  73:.\keyboard.c  **** // Defines an array variable that maps all single-byte scan codes to their
  74:.\keyboard.c  **** // respective ASCII values.
  75:.\keyboard.c  **** //
  76:.\keyboard.c  **** // The 1st column is the the scan code value.
  77:.\keyboard.c  **** // The 2nd column gives the ASCII scan code value with Shift pressed.
  78:.\keyboard.c  **** // The 3rd column gives the ASCII scan code value without Shift pressed.
  79:.\keyboard.c  **** //----------------------------------------------------------------------------
  80:.\keyboard.c  **** unsigned char const AlphabetScancode[ ][3] = {
  81:.\keyboard.c  **** 	'a',	'A',	0x1C,
  82:.\keyboard.c  **** 	'b',	'B',	0x32,
  83:.\keyboard.c  **** 	'c',	'C',	0x21,
  84:.\keyboard.c  **** 	'd',	'D',	0x23,
  85:.\keyboard.c  **** 	'e',	'E',	0x24,
  86:.\keyboard.c  **** 	'f',	'F',	0x2B,
  87:.\keyboard.c  **** 	'g',	'G',	0x34,
  88:.\keyboard.c  **** 	'h',	'H',	0x33,
ARM GAS  C:\Users\addis\AppData\Local\Temp\ccSizEqd.s 			page 3


  89:.\keyboard.c  **** 	'i',	'I',	0x43,
  90:.\keyboard.c  **** 	'j',	'J',	0x3B,
  91:.\keyboard.c  **** 	'k',	'K',	0x42,
  92:.\keyboard.c  **** 	'l',	'L',	0x4B,
  93:.\keyboard.c  **** 	'm',	'M',	0x3A,
  94:.\keyboard.c  **** 	'n',	'N',	0x31,
  95:.\keyboard.c  **** 	'o',	'O',	0x44,
  96:.\keyboard.c  **** 	'p',	'P',	0x4D,
  97:.\keyboard.c  **** 	'q',	'Q',	0x15,
  98:.\keyboard.c  **** 	'r',	'R',	0x2D,
  99:.\keyboard.c  **** 	's',	'S',	0x1B,
 100:.\keyboard.c  **** 	't',	'T',	0x2C,
 101:.\keyboard.c  **** 	'u',	'U',	0x3C,
 102:.\keyboard.c  **** 	'v',	'V',	0x2A,
 103:.\keyboard.c  **** 	'w',	'W',	0x1D,
 104:.\keyboard.c  **** 	'x',	'X',	0x22,
 105:.\keyboard.c  **** 	'y',	'Y',	0x35,
 106:.\keyboard.c  **** 	'z',	'Z',	0x1A,
 107:.\keyboard.c  **** 	0x00,	0x00,	0x00  // Indicates end of this array while searching
 108:.\keyboard.c  **** };
 109:.\keyboard.c  **** 
 110:.\keyboard.c  **** //----------------------------------------------------------------------------
 111:.\keyboard.c  **** // Scan Code to control character ASCII mapping
 112:.\keyboard.c  **** //
 113:.\keyboard.c  **** // Defines an array variable that maps all single-byte scan codes to their
 114:.\keyboard.c  **** // respective ASCII values.
 115:.\keyboard.c  **** //
 116:.\keyboard.c  **** // The 1st column is the the scan code value.
 117:.\keyboard.c  **** // The 2nd column gives the ASCII scan code value with Shift pressed.
 118:.\keyboard.c  **** // The 3rd column gives the ASCII scan code value without Shift pressed.
 119:.\keyboard.c  **** //----------------------------------------------------------------------------
 120:.\keyboard.c  **** unsigned char const ControlScancode[ ][2] = {
 121:.\keyboard.c  **** 	0x01,	0x1C, // ^A, SOH
 122:.\keyboard.c  **** 	0x02,	0x32, // ^B, STX
 123:.\keyboard.c  **** 	0x03,	0x21, // ^C, ETX
 124:.\keyboard.c  **** 	0x04,	0x23, // ^D, EOT
 125:.\keyboard.c  **** 	0x05,	0x24, // ^E, ENQ
 126:.\keyboard.c  **** 	0x06,	0x2B, // ^F, ACK
 127:.\keyboard.c  **** 	0x07,	0x34, // ^G, BEL
 128:.\keyboard.c  **** 	0x08,	0x33, // ^H, BS
 129:.\keyboard.c  **** 	0x09,	0x43, // ^I, HT
 130:.\keyboard.c  **** 	0x0A,	0x3B, // ^J, NL
 131:.\keyboard.c  **** 	0x0B,	0x42, // ^K, VT
 132:.\keyboard.c  **** 	0x0C,	0x4B, // ^L, NP
 133:.\keyboard.c  **** 	0x0D,	0x3A, // ^M, CR
 134:.\keyboard.c  **** 	0x0E,	0x31, // ^N, SO
 135:.\keyboard.c  **** 	0x0F,	0x44, // ^O, SI
 136:.\keyboard.c  **** 	0x10,	0x4D, // ^P, DLE
 137:.\keyboard.c  **** 	0x11,	0x15, // ^Q, DC1
 138:.\keyboard.c  **** 	0x12,	0x2D, // ^R, DC2
 139:.\keyboard.c  **** 	0x13,	0x1B, // ^S, DC3
 140:.\keyboard.c  **** 	0x14,	0x2C, // ^T, DC4
 141:.\keyboard.c  **** 	0x15,	0x3C, // ^U, NAK
 142:.\keyboard.c  **** 	0x16,	0x2A, // ^V, SYN
 143:.\keyboard.c  **** 	0x17,	0x1D, // ^W, ETB
 144:.\keyboard.c  **** 	0x18,	0x22, // ^X, CAN
 145:.\keyboard.c  **** 	0x19,	0x35, // ^Y, EM
ARM GAS  C:\Users\addis\AppData\Local\Temp\ccSizEqd.s 			page 4


 146:.\keyboard.c  **** 	0x1A,	0x1A, // ^Z, SUB
 147:.\keyboard.c  **** 	0x1B,	0x54, // ^[, ESC
 148:.\keyboard.c  **** 	0x1C,	0x5D, // ^\, FS
 149:.\keyboard.c  **** 	0x1D,	0x5B, // ^], GS
 150:.\keyboard.c  **** 	0x1E,	0x36, // ^^, RS
 151:.\keyboard.c  **** 	0x1F,	0x4E, // ^_, US
 152:.\keyboard.c  **** 	0x00,	0x00  // Indicates end of this array while searching
 153:.\keyboard.c  **** };
 154:.\keyboard.c  **** 
 155:.\keyboard.c  **** //----------------------------------------------------------------------------
 156:.\keyboard.c  **** // Scan Code to control character ASCII mapping
 157:.\keyboard.c  **** //
 158:.\keyboard.c  **** // Defines an array variable that maps all single-byte scan codes to their
 159:.\keyboard.c  **** // respective ASCII values.
 160:.\keyboard.c  **** //
 161:.\keyboard.c  **** // The 1st column is the the scan code value.
 162:.\keyboard.c  **** // The 2nd column gives the ASCII scan code value with Shift pressed.
 163:.\keyboard.c  **** //----------------------------------------------------------------------------
 164:.\keyboard.c  **** unsigned char const KeypadScancode[ ][2] = {
 165:.\keyboard.c  **** 	'0',	0x70,
 166:.\keyboard.c  **** 	'1',	0x69,
 167:.\keyboard.c  **** 	'2',	0x72,
 168:.\keyboard.c  **** 	'3',	0x7A,
 169:.\keyboard.c  **** 	'4',	0x6B,
 170:.\keyboard.c  **** 	'5',	0x73,
 171:.\keyboard.c  **** 	'6',	0x74,
 172:.\keyboard.c  **** 	'7',	0x6C,
 173:.\keyboard.c  **** 	'8',	0x75,
 174:.\keyboard.c  **** 	'9',	0x7D,
 175:.\keyboard.c  **** 	'.',	0x71,
 176:.\keyboard.c  **** 	0x00,	0x00  // Indicates end of this array while searching
 177:.\keyboard.c  **** };
 178:.\keyboard.c  **** 
 179:.\keyboard.c  **** //----------------------------------------------------------------------------
 180:.\keyboard.c  **** // Scan Code to 3-octave diatonic musical scale.
 181:.\keyboard.c  **** //
 182:.\keyboard.c  **** // Defines an array variable that maps all single-byte scan codes to their
 183:.\keyboard.c  **** // respective period and pulse widths for a 16-bit PWM User Module utilizing
 184:.\keyboard.c  **** // an 8MHz clock .
 185:.\keyboard.c  **** //
 186:.\keyboard.c  **** // The 1st column is the the scan code value.
 187:.\keyboard.c  **** // The 2nd column gives the 16-bit PWM Period.
 188:.\keyboard.c  **** // The 3rd column gives the 16-bit PWM Pulse Width.
 189:.\keyboard.c  **** //----------------------------------------------------------------------------
 190:.\keyboard.c  **** unsigned int const PianoScancode[ ][3] = {
 191:.\keyboard.c  **** 	//// Lower Octave
 192:.\keyboard.c  **** 	0x1A,	61155,	30577,	// 'z' C3 Low C
 193:.\keyboard.c  **** 	0x22,	54483,	27241,	// 'x' D3
 194:.\keyboard.c  **** 	0x21,	48539,	24269,	// 'c' E3
 195:.\keyboard.c  **** 	0x2A,	45814,	22907,	// 'v' F3
 196:.\keyboard.c  **** 	0x32,	40816,	20407,	// 'b' G3
 197:.\keyboard.c  **** 	0x31,	36363,	18181,	// 'n' A3
 198:.\keyboard.c  **** 	0x3A,	32395,	16197,	// 'm' B3
 199:.\keyboard.c  **** 	0x41,	30577,	15288,	// ',' C4 Middle C
 200:.\keyboard.c  **** 	//// Middle Octave
 201:.\keyboard.c  **** 	0x1C,	30577,	15288,	// 'a' C4 Middle C
 202:.\keyboard.c  **** 	0x1B,	27241,	13620,	// 's' D4
ARM GAS  C:\Users\addis\AppData\Local\Temp\ccSizEqd.s 			page 5


 203:.\keyboard.c  **** 	0x23,	24269,	12134,	// 'd' E4
 204:.\keyboard.c  **** 	0x2B,	22907,	11453,	// 'f' F4
 205:.\keyboard.c  **** 	0x34,	20407,	10203,	// 'g' G4
 206:.\keyboard.c  **** 	0x33,	18181,	9090,	// 'h' A4
 207:.\keyboard.c  **** 	0x3B,	16197,	8098,	// 'j' B4
 208:.\keyboard.c  **** 	0x42,	15288,	7644,	// 'k' C5 Tenor C
 209:.\keyboard.c  **** 	//// Tenor Octave
 210:.\keyboard.c  **** 	0x15,	15288,	7644,	// 'q' C5 Tenor C
 211:.\keyboard.c  **** 	0x1D,	13620,	6809,	// 'w' D5
 212:.\keyboard.c  **** 	0x24,	12134,	6066,	// 'e' E5
 213:.\keyboard.c  **** 	0x2D,	11453,	5726,	// 'r' F5
 214:.\keyboard.c  **** 	0x2C,	10203,	5101,	// 't' G5
 215:.\keyboard.c  **** 	0x35,	9090,	4544,	// 'y' A5
 216:.\keyboard.c  **** 	0x3C,	8098,	4049,	// 'u' B5
 217:.\keyboard.c  **** 	0x43,	7644,	3821,	// 'i' C6 Soprano C
 218:.\keyboard.c  **** 	//// End of array
 219:.\keyboard.c  **** 	0x00,	0x00,	0x00	// Indicates end of this array while searching
 220:.\keyboard.c  **** };
 221:.\keyboard.c  **** 
 222:.\keyboard.c  **** uint8 KeyboardDecodeData(uint8 data)
 223:.\keyboard.c  **** {
  27              		.loc 1 223 0
  28              		.cfi_startproc
  29              		@ args = 0, pretend = 0, frame = 0
  30              		@ frame_needed = 0, uses_anonymous_args = 0
  31              		@ link register save eliminated.
  32              	.LVL0:
 224:.\keyboard.c  **** 	static uint8 state = KBD_START_SEQ;
 225:.\keyboard.c  **** 	uint8 codetype = KEY_NO_ACTION;
 226:.\keyboard.c  **** 	
 227:.\keyboard.c  **** 	switch(state) 
  33              		.loc 1 227 0
  34 0000 434B     		ldr	r3, .L28
  35 0002 1B78     		ldrb	r3, [r3]	@ zero_extendqisi2
  36 0004 072B     		cmp	r3, #7
  37 0006 74D8     		bhi	.L21
  38 0008 DFE803F0 		tbb	[pc, r3]
  39              	.L4:
  40 000c 04       		.byte	(.L3-.L4)/2
  41 000d 19       		.byte	(.L5-.L4)/2
  42 000e 1E       		.byte	(.L6-.L4)/2
  43 000f 2E       		.byte	(.L7-.L4)/2
  44 0010 37       		.byte	(.L8-.L4)/2
  45 0011 49       		.byte	(.L9-.L4)/2
  46 0012 5B       		.byte	(.L10-.L4)/2
  47 0013 66       		.byte	(.L11-.L4)/2
  48              		.p2align 1
  49              	.L3:
 228:.\keyboard.c  **** 	{
 229:.\keyboard.c  **** 		case KBD_START_SEQ:
 230:.\keyboard.c  **** 			if (data == 0xF0)
  50              		.loc 1 230 0
  51 0014 F028     		cmp	r0, #240
  52 0016 04D1     		bne	.L12
 231:.\keyboard.c  **** 				state = KBD_BREAK_SEQ;
  53              		.loc 1 231 0
  54 0018 0122     		movs	r2, #1
ARM GAS  C:\Users\addis\AppData\Local\Temp\ccSizEqd.s 			page 6


  55 001a 3D4B     		ldr	r3, .L28
  56 001c 1A70     		strb	r2, [r3]
 225:.\keyboard.c  **** 	
  57              		.loc 1 225 0
  58 001e 0020     		movs	r0, #0
  59              	.LVL1:
  60 0020 7047     		bx	lr
  61              	.LVL2:
  62              	.L12:
 232:.\keyboard.c  **** 			else if (data == 0xE0)
  63              		.loc 1 232 0
  64 0022 E028     		cmp	r0, #224
  65 0024 04D1     		bne	.L13
 233:.\keyboard.c  **** 				state = KBD_E0_SEQ;
  66              		.loc 1 233 0
  67 0026 0222     		movs	r2, #2
  68 0028 394B     		ldr	r3, .L28
  69 002a 1A70     		strb	r2, [r3]
 225:.\keyboard.c  **** 	
  70              		.loc 1 225 0
  71 002c 0020     		movs	r0, #0
  72              	.LVL3:
  73 002e 7047     		bx	lr
  74              	.LVL4:
  75              	.L13:
 234:.\keyboard.c  **** 			else if (data == 0xE1)
  76              		.loc 1 234 0
  77 0030 E128     		cmp	r0, #225
  78 0032 60D1     		bne	.L22
 235:.\keyboard.c  **** 				state = KBD_PAUSE_A;
  79              		.loc 1 235 0
  80 0034 0422     		movs	r2, #4
  81 0036 364B     		ldr	r3, .L28
  82 0038 1A70     		strb	r2, [r3]
 225:.\keyboard.c  **** 	
  83              		.loc 1 225 0
  84 003a 0020     		movs	r0, #0
  85              	.LVL5:
  86 003c 7047     		bx	lr
  87              	.LVL6:
  88              	.L5:
 236:.\keyboard.c  **** 			else
 237:.\keyboard.c  **** 				codetype = KEY_MAKE;
 238:.\keyboard.c  **** 			break;
 239:.\keyboard.c  **** 	
 240:.\keyboard.c  **** 		case KBD_BREAK_SEQ:
 241:.\keyboard.c  **** 			state = KBD_START_SEQ;
  89              		.loc 1 241 0
  90 003e 0022     		movs	r2, #0
  91 0040 334B     		ldr	r3, .L28
  92 0042 1A70     		strb	r2, [r3]
  93              	.LVL7:
 242:.\keyboard.c  **** 			codetype = KEY_BREAK;
  94              		.loc 1 242 0
  95 0044 0220     		movs	r0, #2
  96              	.LVL8:
 243:.\keyboard.c  **** 			break;
ARM GAS  C:\Users\addis\AppData\Local\Temp\ccSizEqd.s 			page 7


  97              		.loc 1 243 0
  98 0046 7047     		bx	lr
  99              	.LVL9:
 100              	.L6:
 244:.\keyboard.c  **** 			
 245:.\keyboard.c  **** 		case KBD_E0_SEQ:
 246:.\keyboard.c  **** 			if (data == 0xF0)
 101              		.loc 1 246 0
 102 0048 F028     		cmp	r0, #240
 103 004a 04D1     		bne	.L14
 247:.\keyboard.c  **** 				state = KBD_E0_F0_SEQ;
 104              		.loc 1 247 0
 105 004c 0322     		movs	r2, #3
 106 004e 304B     		ldr	r3, .L28
 107 0050 1A70     		strb	r2, [r3]
 225:.\keyboard.c  **** 	
 108              		.loc 1 225 0
 109 0052 0020     		movs	r0, #0
 110              	.LVL10:
 111 0054 7047     		bx	lr
 112              	.LVL11:
 113              	.L14:
 248:.\keyboard.c  **** 			else
 249:.\keyboard.c  **** 			{
 250:.\keyboard.c  **** 				state = KBD_START_SEQ;
 114              		.loc 1 250 0
 115 0056 0022     		movs	r2, #0
 116 0058 2D4B     		ldr	r3, .L28
 117 005a 1A70     		strb	r2, [r3]
 251:.\keyboard.c  **** 			
 252:.\keyboard.c  **** 				// See if this is a fake-shift MAKE.
 253:.\keyboard.c  **** 				if (data == 0x12 || data == 0x59) 
 118              		.loc 1 253 0
 119 005c 1228     		cmp	r0, #18
 120 005e 4CD0     		beq	.L23
 121              		.loc 1 253 0 is_stmt 0 discriminator 1
 122 0060 5928     		cmp	r0, #89
 123 0062 4CD1     		bne	.L24
 254:.\keyboard.c  **** 					codetype = KEY_FAKE_SHIFT | KEY_MAKE;
 124              		.loc 1 254 0 is_stmt 1
 125 0064 1120     		movs	r0, #17
 126              	.LVL12:
 127 0066 7047     		bx	lr
 128              	.LVL13:
 129              	.L7:
 255:.\keyboard.c  **** 				else
 256:.\keyboard.c  **** 					codetype = KEY_E0 | KEY_MAKE;
 257:.\keyboard.c  **** 			}
 258:.\keyboard.c  **** 			break;
 259:.\keyboard.c  **** 			
 260:.\keyboard.c  **** 		case KBD_E0_F0_SEQ:
 261:.\keyboard.c  **** 			state = KBD_START_SEQ;
 130              		.loc 1 261 0
 131 0068 0022     		movs	r2, #0
 132 006a 294B     		ldr	r3, .L28
 133 006c 1A70     		strb	r2, [r3]
 262:.\keyboard.c  **** 			
ARM GAS  C:\Users\addis\AppData\Local\Temp\ccSizEqd.s 			page 8


 263:.\keyboard.c  **** 			// See if this is a fake-shift BREAK.
 264:.\keyboard.c  **** 			if (data == 0x12 || data == 0x59)
 134              		.loc 1 264 0
 135 006e 1228     		cmp	r0, #18
 136 0070 47D0     		beq	.L25
 137              		.loc 1 264 0 is_stmt 0 discriminator 1
 138 0072 5928     		cmp	r0, #89
 139 0074 47D1     		bne	.L26
 265:.\keyboard.c  **** 				codetype = KEY_FAKE_SHIFT | KEY_BREAK;
 140              		.loc 1 265 0 is_stmt 1
 141 0076 1220     		movs	r0, #18
 142              	.LVL14:
 143 0078 7047     		bx	lr
 144              	.LVL15:
 145              	.L8:
 266:.\keyboard.c  **** 			else
 267:.\keyboard.c  **** 				codetype = KEY_E0 | KEY_BREAK;
 268:.\keyboard.c  **** 			break;
 269:.\keyboard.c  **** 			
 270:.\keyboard.c  **** 		case KBD_PAUSE_A:
 271:.\keyboard.c  **** 			if (data == 0x14)
 146              		.loc 1 271 0
 147 007a 1428     		cmp	r0, #20
 148 007c 04D1     		bne	.L15
 272:.\keyboard.c  **** 				state = KBD_PAUSE_B;
 149              		.loc 1 272 0
 150 007e 0522     		movs	r2, #5
 151 0080 234B     		ldr	r3, .L28
 152 0082 1A70     		strb	r2, [r3]
 225:.\keyboard.c  **** 	
 153              		.loc 1 225 0
 154 0084 0020     		movs	r0, #0
 155              	.LVL16:
 156 0086 7047     		bx	lr
 157              	.LVL17:
 158              	.L15:
 273:.\keyboard.c  **** 			else if (data == 0xF0)
 159              		.loc 1 273 0
 160 0088 F028     		cmp	r0, #240
 161 008a 04D1     		bne	.L16
 274:.\keyboard.c  **** 				state = KBD_PAUSE_D;
 162              		.loc 1 274 0
 163 008c 0722     		movs	r2, #7
 164 008e 204B     		ldr	r3, .L28
 165 0090 1A70     		strb	r2, [r3]
 225:.\keyboard.c  **** 	
 166              		.loc 1 225 0
 167 0092 0020     		movs	r0, #0
 168              	.LVL18:
 169 0094 7047     		bx	lr
 170              	.LVL19:
 171              	.L16:
 275:.\keyboard.c  **** 			else
 276:.\keyboard.c  **** 				state = KBD_START_SEQ;
 172              		.loc 1 276 0
 173 0096 0020     		movs	r0, #0
 174              	.LVL20:
ARM GAS  C:\Users\addis\AppData\Local\Temp\ccSizEqd.s 			page 9


 175 0098 1D4B     		ldr	r3, .L28
 176 009a 1870     		strb	r0, [r3]
 177 009c 7047     		bx	lr
 178              	.LVL21:
 179              	.L9:
 277:.\keyboard.c  **** 			break;
 278:.\keyboard.c  **** 			
 279:.\keyboard.c  **** 		case KBD_PAUSE_B:
 280:.\keyboard.c  **** 			if (data == 0x77)
 180              		.loc 1 280 0
 181 009e 7728     		cmp	r0, #119
 182 00a0 04D1     		bne	.L17
 281:.\keyboard.c  **** 				state = KBD_PAUSE_C;
 183              		.loc 1 281 0
 184 00a2 0622     		movs	r2, #6
 185 00a4 1A4B     		ldr	r3, .L28
 186 00a6 1A70     		strb	r2, [r3]
 225:.\keyboard.c  **** 	
 187              		.loc 1 225 0
 188 00a8 0020     		movs	r0, #0
 189              	.LVL22:
 190 00aa 7047     		bx	lr
 191              	.LVL23:
 192              	.L17:
 282:.\keyboard.c  **** 			else if (data == 0xF0)
 193              		.loc 1 282 0
 194 00ac F028     		cmp	r0, #240
 195 00ae 04D1     		bne	.L18
 283:.\keyboard.c  **** 				state = KBD_PAUSE_D;
 196              		.loc 1 283 0
 197 00b0 0722     		movs	r2, #7
 198 00b2 174B     		ldr	r3, .L28
 199 00b4 1A70     		strb	r2, [r3]
 225:.\keyboard.c  **** 	
 200              		.loc 1 225 0
 201 00b6 0020     		movs	r0, #0
 202              	.LVL24:
 203 00b8 7047     		bx	lr
 204              	.LVL25:
 205              	.L18:
 284:.\keyboard.c  **** 			else
 285:.\keyboard.c  **** 				state = KBD_START_SEQ;
 206              		.loc 1 285 0
 207 00ba 0020     		movs	r0, #0
 208              	.LVL26:
 209 00bc 144B     		ldr	r3, .L28
 210 00be 1870     		strb	r0, [r3]
 211 00c0 7047     		bx	lr
 212              	.LVL27:
 213              	.L10:
 286:.\keyboard.c  **** 			break;
 287:.\keyboard.c  **** 			
 288:.\keyboard.c  **** 		case KBD_PAUSE_C:
 289:.\keyboard.c  **** 			if (data == 0xE1)
 214              		.loc 1 289 0
 215 00c2 E128     		cmp	r0, #225
 216 00c4 04D1     		bne	.L19
ARM GAS  C:\Users\addis\AppData\Local\Temp\ccSizEqd.s 			page 10


 290:.\keyboard.c  **** 				state = KBD_PAUSE_A;
 217              		.loc 1 290 0
 218 00c6 0422     		movs	r2, #4
 219 00c8 114B     		ldr	r3, .L28
 220 00ca 1A70     		strb	r2, [r3]
 225:.\keyboard.c  **** 	
 221              		.loc 1 225 0
 222 00cc 0020     		movs	r0, #0
 223              	.LVL28:
 224 00ce 7047     		bx	lr
 225              	.LVL29:
 226              	.L19:
 291:.\keyboard.c  **** 			else
 292:.\keyboard.c  **** 				state = KBD_START_SEQ;
 227              		.loc 1 292 0
 228 00d0 0020     		movs	r0, #0
 229              	.LVL30:
 230 00d2 0F4B     		ldr	r3, .L28
 231 00d4 1870     		strb	r0, [r3]
 232 00d6 7047     		bx	lr
 233              	.LVL31:
 234              	.L11:
 293:.\keyboard.c  **** 			break;
 294:.\keyboard.c  **** 			
 295:.\keyboard.c  **** 		case KBD_PAUSE_D:
 296:.\keyboard.c  **** 			if (data == 0x14)
 235              		.loc 1 296 0
 236 00d8 1428     		cmp	r0, #20
 237 00da 04D1     		bne	.L20
 297:.\keyboard.c  **** 				state = KBD_PAUSE_B;
 238              		.loc 1 297 0
 239 00dc 0522     		movs	r2, #5
 240 00de 0C4B     		ldr	r3, .L28
 241 00e0 1A70     		strb	r2, [r3]
 225:.\keyboard.c  **** 	
 242              		.loc 1 225 0
 243 00e2 0020     		movs	r0, #0
 244              	.LVL32:
 245 00e4 7047     		bx	lr
 246              	.LVL33:
 247              	.L20:
 298:.\keyboard.c  **** 			else if (data == 0x77)
 248              		.loc 1 298 0
 249 00e6 7728     		cmp	r0, #119
 250 00e8 0FD0     		beq	.L27
 299:.\keyboard.c  **** 				codetype = KEY_PAUSE;
 300:.\keyboard.c  **** 			else
 301:.\keyboard.c  **** 				state = KBD_START_SEQ;
 251              		.loc 1 301 0
 252 00ea 0020     		movs	r0, #0
 253              	.LVL34:
 254 00ec 084B     		ldr	r3, .L28
 255 00ee 1870     		strb	r0, [r3]
 256 00f0 7047     		bx	lr
 257              	.LVL35:
 258              	.L21:
 225:.\keyboard.c  **** 	
ARM GAS  C:\Users\addis\AppData\Local\Temp\ccSizEqd.s 			page 11


 259              		.loc 1 225 0
 260 00f2 0020     		movs	r0, #0
 261              	.LVL36:
 262 00f4 7047     		bx	lr
 263              	.LVL37:
 264              	.L22:
 237:.\keyboard.c  **** 			break;
 265              		.loc 1 237 0
 266 00f6 0120     		movs	r0, #1
 267              	.LVL38:
 268 00f8 7047     		bx	lr
 269              	.LVL39:
 270              	.L23:
 254:.\keyboard.c  **** 				else
 271              		.loc 1 254 0
 272 00fa 1120     		movs	r0, #17
 273              	.LVL40:
 274 00fc 7047     		bx	lr
 275              	.LVL41:
 276              	.L24:
 256:.\keyboard.c  **** 			}
 277              		.loc 1 256 0
 278 00fe 0520     		movs	r0, #5
 279              	.LVL42:
 280 0100 7047     		bx	lr
 281              	.LVL43:
 282              	.L25:
 265:.\keyboard.c  **** 			else
 283              		.loc 1 265 0
 284 0102 1220     		movs	r0, #18
 285              	.LVL44:
 286 0104 7047     		bx	lr
 287              	.LVL45:
 288              	.L26:
 267:.\keyboard.c  **** 			break;
 289              		.loc 1 267 0
 290 0106 0620     		movs	r0, #6
 291              	.LVL46:
 292 0108 7047     		bx	lr
 293              	.LVL47:
 294              	.L27:
 299:.\keyboard.c  **** 			else
 295              		.loc 1 299 0
 296 010a 0820     		movs	r0, #8
 297              	.LVL48:
 302:.\keyboard.c  **** 			break;
 303:.\keyboard.c  **** 	}
 304:.\keyboard.c  **** 	
 305:.\keyboard.c  **** 	return codetype;
 306:.\keyboard.c  **** }
 298              		.loc 1 306 0
 299 010c 7047     		bx	lr
 300              	.L29:
 301 010e 00BF     		.align	2
 302              	.L28:
 303 0110 00000000 		.word	.LANCHOR0
 304              		.cfi_endproc
ARM GAS  C:\Users\addis\AppData\Local\Temp\ccSizEqd.s 			page 12


 305              	.LFE0:
 306              		.size	KeyboardDecodeData, .-KeyboardDecodeData
 307              		.section	.text.KeyboardToASCII,"ax",%progbits
 308              		.align	2
 309              		.global	KeyboardToASCII
 310              		.thumb
 311              		.thumb_func
 312              		.type	KeyboardToASCII, %function
 313              	KeyboardToASCII:
 314              	.LFB1:
 307:.\keyboard.c  **** 
 308:.\keyboard.c  **** char KeyboardToASCII(uint8 scancode, uint8 codetype)
 309:.\keyboard.c  **** {	
 315              		.loc 1 309 0
 316              		.cfi_startproc
 317              		@ args = 0, pretend = 0, frame = 0
 318              		@ frame_needed = 0, uses_anonymous_args = 0
 319              		@ link register save eliminated.
 320              	.LVL49:
 321 0000 10B4     		push	{r4}
 322              		.cfi_def_cfa_offset 4
 323              		.cfi_offset 4, -4
 310:.\keyboard.c  **** 	uint8 i;
 311:.\keyboard.c  **** 	
 312:.\keyboard.c  **** 	//// Ignore fake-shifts
 313:.\keyboard.c  **** 	if (codetype & KEY_FAKE_SHIFT)
 324              		.loc 1 313 0
 325 0002 11F0100F 		tst	r1, #16
 326 0006 40F09480 		bne	.L49
 314:.\keyboard.c  **** 		return 0;
 315:.\keyboard.c  **** 	
 316:.\keyboard.c  **** 	if (codetype & KEY_MAKE)
 327              		.loc 1 316 0
 328 000a 11F0010F 		tst	r1, #1
 329 000e 00F09280 		beq	.L50
 317:.\keyboard.c  **** 	{
 318:.\keyboard.c  **** 		//// Convert any two byte (E0) scancodetypes to their ASCII equivalent
 319:.\keyboard.c  **** 		if (codetype & KEY_E0) 
 330              		.loc 1 319 0
 331 0012 11F0040F 		tst	r1, #4
 332 0016 0FD0     		beq	.L32
 320:.\keyboard.c  **** 		{
 321:.\keyboard.c  **** 			if (scancode == 0x71) return(0x08);	// Delete (return backspace)
 333              		.loc 1 321 0
 334 0018 7128     		cmp	r0, #113
 335 001a 00F08E80 		beq	.L51
 322:.\keyboard.c  **** 			if (scancode == 0x4A) return('/');	// Keypad /
 336              		.loc 1 322 0
 337 001e 4A28     		cmp	r0, #74
 338 0020 00F08D80 		beq	.L52
 323:.\keyboard.c  **** 			if (scancode == 0x5A) { // Keypad Enter
 339              		.loc 1 323 0
 340 0024 5A28     		cmp	r0, #90
 341 0026 40F08C80 		bne	.L53
 324:.\keyboard.c  **** 				if (CtrlDown) return(0x0A);	// ^Enter (return line-feed)
 342              		.loc 1 324 0
 343 002a 514B     		ldr	r3, .L69
ARM GAS  C:\Users\addis\AppData\Local\Temp\ccSizEqd.s 			page 13


 344 002c 1B78     		ldrb	r3, [r3]	@ zero_extendqisi2
 345 002e 002B     		cmp	r3, #0
 346 0030 00F08980 		beq	.L54
 347 0034 0A20     		movs	r0, #10
 348              	.LVL50:
 349 0036 97E0     		b	.L31
 350              	.LVL51:
 351              	.L32:
 325:.\keyboard.c  **** 				else return(0x0D); // (return carriage-return)
 326:.\keyboard.c  **** 			}
 327:.\keyboard.c  **** 		}
 328:.\keyboard.c  **** 		//// Convert any single byte scancodes to their ASCII equivalent
 329:.\keyboard.c  **** 		else {
 330:.\keyboard.c  **** 			//// Check for special case keys
 331:.\keyboard.c  **** 			if (scancode == 0x5A) { // Enter
 352              		.loc 1 331 0
 353 0038 5A28     		cmp	r0, #90
 354 003a 06D1     		bne	.L33
 332:.\keyboard.c  **** 				if (CtrlDown) return(0x0A);	// ^Enter (return line-feed)
 355              		.loc 1 332 0
 356 003c 4C4B     		ldr	r3, .L69
 357 003e 1B78     		ldrb	r3, [r3]	@ zero_extendqisi2
 358 0040 002B     		cmp	r3, #0
 359 0042 00F08280 		beq	.L55
 360 0046 0A20     		movs	r0, #10
 361              	.LVL52:
 362 0048 8EE0     		b	.L31
 363              	.LVL53:
 364              	.L33:
 333:.\keyboard.c  **** 				else return(0x0D); // (return carriage-return)
 334:.\keyboard.c  **** 			}
 335:.\keyboard.c  **** 			if (scancode == 0x76) return(0x1B);	// ESC key returns ASCII ESC
 365              		.loc 1 335 0
 366 004a 7628     		cmp	r0, #118
 367 004c 7FD0     		beq	.L56
 336:.\keyboard.c  **** 			if (scancode == 0x7C) return('*');	// KP *
 368              		.loc 1 336 0
 369 004e 7C28     		cmp	r0, #124
 370 0050 7FD0     		beq	.L57
 337:.\keyboard.c  **** 			if (scancode == 0x7B) return('-');	// KP -
 371              		.loc 1 337 0
 372 0052 7B28     		cmp	r0, #123
 373 0054 7FD0     		beq	.L58
 338:.\keyboard.c  **** 			if (scancode == 0x79) return('+');	// KP +
 374              		.loc 1 338 0
 375 0056 7928     		cmp	r0, #121
 376 0058 7FD0     		beq	.L59
 339:.\keyboard.c  **** 			if (scancode == 0x66) return (0x08); // BkSP
 377              		.loc 1 339 0
 378 005a 6628     		cmp	r0, #102
 379 005c 7FD0     		beq	.L60
 340:.\keyboard.c  **** 			//// If one of the Control keys is down, return their ASCII value
 341:.\keyboard.c  **** 			if (CtrlDown) 
 380              		.loc 1 341 0
 381 005e 444B     		ldr	r3, .L69
 382 0060 1B78     		ldrb	r3, [r3]	@ zero_extendqisi2
 383 0062 1BB9     		cbnz	r3, .L61
ARM GAS  C:\Users\addis\AppData\Local\Temp\ccSizEqd.s 			page 14


 384 0064 11E0     		b	.L35
 385              	.LVL54:
 386              	.L37:
 342:.\keyboard.c  **** 			{
 343:.\keyboard.c  **** 				i = 0;
 344:.\keyboard.c  **** 				while((ControlScancode[i][1] != scancode) && (ControlScancode[i][1] != 0)) {
 345:.\keyboard.c  **** 					i++;
 387              		.loc 1 345 0
 388 0066 0133     		adds	r3, r3, #1
 389              	.LVL55:
 390 0068 DBB2     		uxtb	r3, r3
 391              	.LVL56:
 392 006a 00E0     		b	.L34
 393              	.LVL57:
 394              	.L61:
 395 006c 0023     		movs	r3, #0
 396              	.LVL58:
 397              	.L34:
 344:.\keyboard.c  **** 					i++;
 398              		.loc 1 344 0
 399 006e 1946     		mov	r1, r3
 400 0070 404A     		ldr	r2, .L69+4
 401 0072 02EB4302 		add	r2, r2, r3, lsl #1
 402 0076 5278     		ldrb	r2, [r2, #1]	@ zero_extendqisi2
 403 0078 8242     		cmp	r2, r0
 404 007a 01D0     		beq	.L36
 344:.\keyboard.c  **** 					i++;
 405              		.loc 1 344 0 is_stmt 0 discriminator 1
 406 007c 002A     		cmp	r2, #0
 407 007e F2D1     		bne	.L37
 408              	.L36:
 346:.\keyboard.c  **** 				}
 347:.\keyboard.c  **** 				if (ControlScancode[i][1] > 0) {
 409              		.loc 1 347 0 is_stmt 1
 410 0080 1AB1     		cbz	r2, .L35
 348:.\keyboard.c  **** 					return(ControlScancode[i][0]);
 411              		.loc 1 348 0
 412 0082 3C4B     		ldr	r3, .L69+4
 413              	.LVL59:
 414 0084 13F81100 		ldrb	r0, [r3, r1, lsl #1]	@ zero_extendqisi2
 415              	.LVL60:
 416 0088 6EE0     		b	.L31
 417              	.LVL61:
 418              	.L35:
 349:.\keyboard.c  **** 				}
 350:.\keyboard.c  **** 			}
 351:.\keyboard.c  **** 			//// If NumLock is on, return any appropriate key pad ASCII values
 352:.\keyboard.c  **** 			if (NumLock) {
 419              		.loc 1 352 0
 420 008a 3B4B     		ldr	r3, .L69+8
 421 008c 1B78     		ldrb	r3, [r3]	@ zero_extendqisi2
 422 008e 1BB9     		cbnz	r3, .L62
 423 0090 14E0     		b	.L67
 424              	.LVL62:
 425              	.L41:
 353:.\keyboard.c  **** 				i = 0;
 354:.\keyboard.c  **** 				while((KeypadScancode[i][1] != scancode) && (KeypadScancode[i][1] != 0)) {
ARM GAS  C:\Users\addis\AppData\Local\Temp\ccSizEqd.s 			page 15


 355:.\keyboard.c  **** 					i++;
 426              		.loc 1 355 0
 427 0092 0133     		adds	r3, r3, #1
 428              	.LVL63:
 429 0094 DBB2     		uxtb	r3, r3
 430              	.LVL64:
 431 0096 00E0     		b	.L38
 432              	.LVL65:
 433              	.L62:
 434 0098 0023     		movs	r3, #0
 435              	.L38:
 436              	.LVL66:
 354:.\keyboard.c  **** 					i++;
 437              		.loc 1 354 0
 438 009a 1946     		mov	r1, r3
 439 009c 354A     		ldr	r2, .L69+4
 440 009e 02EB4302 		add	r2, r2, r3, lsl #1
 441 00a2 92F84120 		ldrb	r2, [r2, #65]	@ zero_extendqisi2
 442 00a6 8242     		cmp	r2, r0
 443 00a8 01D0     		beq	.L40
 354:.\keyboard.c  **** 					i++;
 444              		.loc 1 354 0 is_stmt 0 discriminator 1
 445 00aa 002A     		cmp	r2, #0
 446 00ac F1D1     		bne	.L41
 447              	.L40:
 356:.\keyboard.c  **** 				}
 357:.\keyboard.c  **** 				if (KeypadScancode[i][1] > 0) {
 448              		.loc 1 357 0 is_stmt 1
 449 00ae 4AB1     		cbz	r2, .L63
 358:.\keyboard.c  **** 					return(KeypadScancode[i][0]);
 450              		.loc 1 358 0
 451 00b0 304B     		ldr	r3, .L69+4
 452              	.LVL67:
 453 00b2 03EB4101 		add	r1, r3, r1, lsl #1
 454 00b6 91F84000 		ldrb	r0, [r1, #64]	@ zero_extendqisi2
 455              	.LVL68:
 456 00ba 55E0     		b	.L31
 457              	.LVL69:
 458              	.L67:
 359:.\keyboard.c  **** 				}
 360:.\keyboard.c  **** 			}
 361:.\keyboard.c  **** 			//// Keypad ./DEL returns backspace if NumLock is off
 362:.\keyboard.c  **** 			else {
 363:.\keyboard.c  **** 				if (scancode == 0x71) return(0x08);	// KP ./Del (return backspace)
 459              		.loc 1 363 0
 460 00bc 7128     		cmp	r0, #113
 461 00be 50D0     		beq	.L64
 462 00c0 0023     		movs	r3, #0
 463 00c2 03E0     		b	.L43
 464              	.LVL70:
 465              	.L63:
 466 00c4 0023     		movs	r3, #0
 467              	.LVL71:
 468 00c6 01E0     		b	.L43
 469              	.LVL72:
 470              	.L45:
 364:.\keyboard.c  **** 			}
ARM GAS  C:\Users\addis\AppData\Local\Temp\ccSizEqd.s 			page 16


 365:.\keyboard.c  **** 			//// Search for all others in their shifted or CapsLock form
 366:.\keyboard.c  **** 			i = 0;
 367:.\keyboard.c  **** 			while((AlphabetScancode[i][2] != scancode) && (AlphabetScancode[i][2] != 0)) {
 368:.\keyboard.c  **** 				i++;
 471              		.loc 1 368 0
 472 00c8 0133     		adds	r3, r3, #1
 473              	.LVL73:
 474 00ca DBB2     		uxtb	r3, r3
 475              	.LVL74:
 476              	.L43:
 367:.\keyboard.c  **** 				i++;
 477              		.loc 1 367 0
 478 00cc 1C46     		mov	r4, r3
 479 00ce 03EB4302 		add	r2, r3, r3, lsl #1
 480 00d2 2849     		ldr	r1, .L69+4
 481 00d4 0A44     		add	r2, r2, r1
 482 00d6 92F85A20 		ldrb	r2, [r2, #90]	@ zero_extendqisi2
 483 00da 8242     		cmp	r2, r0
 484 00dc 01D0     		beq	.L44
 367:.\keyboard.c  **** 				i++;
 485              		.loc 1 367 0 is_stmt 0 discriminator 1
 486 00de 002A     		cmp	r2, #0
 487 00e0 F2D1     		bne	.L45
 488              	.L44:
 369:.\keyboard.c  **** 			}
 370:.\keyboard.c  **** 			if (AlphabetScancode[i][2] > 0) {
 489              		.loc 1 370 0 is_stmt 1
 490 00e2 7AB1     		cbz	r2, .L65
 371:.\keyboard.c  **** 				return(AlphabetScancode[i][ShiftDown^CapsLock]);
 491              		.loc 1 371 0
 492 00e4 254B     		ldr	r3, .L69+12
 493              	.LVL75:
 494 00e6 1A78     		ldrb	r2, [r3]	@ zero_extendqisi2
 495 00e8 254B     		ldr	r3, .L69+16
 496 00ea 1B78     		ldrb	r3, [r3]	@ zero_extendqisi2
 497 00ec 5A40     		eors	r2, r2, r3
 498 00ee 04EB4404 		add	r4, r4, r4, lsl #1
 499 00f2 204B     		ldr	r3, .L69+4
 500 00f4 2344     		add	r3, r3, r4
 501 00f6 1344     		add	r3, r3, r2
 502 00f8 93F85800 		ldrb	r0, [r3, #88]	@ zero_extendqisi2
 503              	.LVL76:
 504 00fc 34E0     		b	.L31
 505              	.LVL77:
 506              	.L48:
 372:.\keyboard.c  **** 			}
 373:.\keyboard.c  **** 			else {
 374:.\keyboard.c  **** 				i = 0;
 375:.\keyboard.c  **** 				while((ShiftableScancode[i][2] != scancode) && (ShiftableScancode[i][2] != 0)) {
 376:.\keyboard.c  **** 					i++;
 507              		.loc 1 376 0
 508 00fe 0133     		adds	r3, r3, #1
 509              	.LVL78:
 510 0100 DBB2     		uxtb	r3, r3
 511              	.LVL79:
 512 0102 00E0     		b	.L46
 513              	.L65:
ARM GAS  C:\Users\addis\AppData\Local\Temp\ccSizEqd.s 			page 17


 514 0104 0023     		movs	r3, #0
 515              	.LVL80:
 516              	.L46:
 375:.\keyboard.c  **** 					i++;
 517              		.loc 1 375 0
 518 0106 1C46     		mov	r4, r3
 519 0108 03EB4302 		add	r2, r3, r3, lsl #1
 520 010c 1949     		ldr	r1, .L69+4
 521 010e 0A44     		add	r2, r2, r1
 522 0110 92F8AE20 		ldrb	r2, [r2, #174]	@ zero_extendqisi2
 523 0114 8242     		cmp	r2, r0
 524 0116 01D0     		beq	.L47
 375:.\keyboard.c  **** 					i++;
 525              		.loc 1 375 0 is_stmt 0 discriminator 1
 526 0118 002A     		cmp	r2, #0
 527 011a F0D1     		bne	.L48
 528              	.L47:
 377:.\keyboard.c  **** 				}
 378:.\keyboard.c  **** 				if (ShiftableScancode[i][2] > 0) {
 529              		.loc 1 378 0 is_stmt 1
 530 011c 1AB3     		cbz	r2, .L66
 379:.\keyboard.c  **** 					return(ShiftableScancode[i][ShiftDown]);
 531              		.loc 1 379 0
 532 011e 174B     		ldr	r3, .L69+12
 533              	.LVL81:
 534 0120 1A78     		ldrb	r2, [r3]	@ zero_extendqisi2
 535 0122 04EB4404 		add	r4, r4, r4, lsl #1
 536 0126 134B     		ldr	r3, .L69+4
 537 0128 2344     		add	r3, r3, r4
 538 012a 1344     		add	r3, r3, r2
 539 012c 93F8AC00 		ldrb	r0, [r3, #172]	@ zero_extendqisi2
 540              	.LVL82:
 541 0130 1AE0     		b	.L31
 542              	.LVL83:
 543              	.L49:
 314:.\keyboard.c  **** 	
 544              		.loc 1 314 0
 545 0132 0020     		movs	r0, #0
 546              	.LVL84:
 547 0134 18E0     		b	.L31
 548              	.LVL85:
 549              	.L50:
 380:.\keyboard.c  **** 				}
 381:.\keyboard.c  **** 			}
 382:.\keyboard.c  **** 		}
 383:.\keyboard.c  **** 	}
 384:.\keyboard.c  **** 	
 385:.\keyboard.c  **** 	//// No ASCII match returns zero
 386:.\keyboard.c  **** 	return 0;
 550              		.loc 1 386 0
 551 0136 0020     		movs	r0, #0
 552              	.LVL86:
 553 0138 16E0     		b	.L31
 554              	.LVL87:
 555              	.L51:
 321:.\keyboard.c  **** 			if (scancode == 0x4A) return('/');	// Keypad /
 556              		.loc 1 321 0
ARM GAS  C:\Users\addis\AppData\Local\Temp\ccSizEqd.s 			page 18


 557 013a 0820     		movs	r0, #8
 558              	.LVL88:
 559 013c 14E0     		b	.L31
 560              	.LVL89:
 561              	.L52:
 322:.\keyboard.c  **** 			if (scancode == 0x5A) { // Keypad Enter
 562              		.loc 1 322 0
 563 013e 2F20     		movs	r0, #47
 564              	.LVL90:
 565 0140 12E0     		b	.L31
 566              	.LVL91:
 567              	.L53:
 568              		.loc 1 386 0
 569 0142 0020     		movs	r0, #0
 570              	.LVL92:
 571 0144 10E0     		b	.L31
 572              	.LVL93:
 573              	.L54:
 325:.\keyboard.c  **** 			}
 574              		.loc 1 325 0
 575 0146 0D20     		movs	r0, #13
 576              	.LVL94:
 577 0148 0EE0     		b	.L31
 578              	.LVL95:
 579              	.L55:
 333:.\keyboard.c  **** 			}
 580              		.loc 1 333 0
 581 014a 0D20     		movs	r0, #13
 582              	.LVL96:
 583 014c 0CE0     		b	.L31
 584              	.LVL97:
 585              	.L56:
 335:.\keyboard.c  **** 			if (scancode == 0x7C) return('*');	// KP *
 586              		.loc 1 335 0
 587 014e 1B20     		movs	r0, #27
 588              	.LVL98:
 589 0150 0AE0     		b	.L31
 590              	.LVL99:
 591              	.L57:
 336:.\keyboard.c  **** 			if (scancode == 0x7B) return('-');	// KP -
 592              		.loc 1 336 0
 593 0152 2A20     		movs	r0, #42
 594              	.LVL100:
 595 0154 08E0     		b	.L31
 596              	.LVL101:
 597              	.L58:
 337:.\keyboard.c  **** 			if (scancode == 0x79) return('+');	// KP +
 598              		.loc 1 337 0
 599 0156 2D20     		movs	r0, #45
 600              	.LVL102:
 601 0158 06E0     		b	.L31
 602              	.LVL103:
 603              	.L59:
 338:.\keyboard.c  **** 			if (scancode == 0x66) return (0x08); // BkSP
 604              		.loc 1 338 0
 605 015a 2B20     		movs	r0, #43
 606              	.LVL104:
ARM GAS  C:\Users\addis\AppData\Local\Temp\ccSizEqd.s 			page 19


 607 015c 04E0     		b	.L31
 608              	.LVL105:
 609              	.L60:
 339:.\keyboard.c  **** 			//// If one of the Control keys is down, return their ASCII value
 610              		.loc 1 339 0
 611 015e 0820     		movs	r0, #8
 612              	.LVL106:
 613 0160 02E0     		b	.L31
 614              	.LVL107:
 615              	.L64:
 363:.\keyboard.c  **** 			}
 616              		.loc 1 363 0
 617 0162 0820     		movs	r0, #8
 618              	.LVL108:
 619 0164 00E0     		b	.L31
 620              	.LVL109:
 621              	.L66:
 622              		.loc 1 386 0
 623 0166 0020     		movs	r0, #0
 624              	.LVL110:
 625              	.L31:
 387:.\keyboard.c  **** }
 626              		.loc 1 387 0
 627 0168 5DF8044B 		ldr	r4, [sp], #4
 628              		.cfi_restore 4
 629              		.cfi_def_cfa_offset 0
 630 016c 7047     		bx	lr
 631              	.L70:
 632 016e 00BF     		.align	2
 633              	.L69:
 634 0170 00000000 		.word	CtrlDown
 635 0174 00000000 		.word	.LANCHOR1
 636 0178 00000000 		.word	NumLock
 637 017c 00000000 		.word	ShiftDown
 638 0180 00000000 		.word	CapsLock
 639              		.cfi_endproc
 640              	.LFE1:
 641              		.size	KeyboardToASCII, .-KeyboardToASCII
 642              		.section	.text.KeyboardAction,"ax",%progbits
 643              		.align	2
 644              		.global	KeyboardAction
 645              		.thumb
 646              		.thumb_func
 647              		.type	KeyboardAction, %function
 648              	KeyboardAction:
 649              	.LFB2:
 388:.\keyboard.c  **** 
 389:.\keyboard.c  **** void KeyboardAction(uint8 scancode, uint8 codetype)
 390:.\keyboard.c  **** {
 650              		.loc 1 390 0
 651              		.cfi_startproc
 652              		@ args = 0, pretend = 0, frame = 0
 653              		@ frame_needed = 0, uses_anonymous_args = 0
 654              	.LVL111:
 391:.\keyboard.c  **** 	//// Keyboard variables below
 392:.\keyboard.c  **** 	uint8 status;
 393:.\keyboard.c  **** 	int i;
ARM GAS  C:\Users\addis\AppData\Local\Temp\ccSizEqd.s 			page 20


 394:.\keyboard.c  **** 	static uint8 brightindex = 127;	// PWM LED brightness index
 395:.\keyboard.c  **** 	static uint8 pwm_on = 1;		// PWM User Module on or off
 396:.\keyboard.c  **** 	static uint8 statusLEDs=0;
 397:.\keyboard.c  **** 	static uint8 shiftstatus = 0;
 398:.\keyboard.c  **** 	static uint8 ctrlstatus = 0;
 399:.\keyboard.c  **** 	static uint8 altstatus = 0;
 400:.\keyboard.c  **** 	static uint8 altStr[12];
 401:.\keyboard.c  **** 	static uint8 altIndex = 0;
 402:.\keyboard.c  **** 	
 403:.\keyboard.c  **** 	//// Ignore fake-shifts (unless you care about them)
 404:.\keyboard.c  **** 	if (codetype & KEY_FAKE_SHIFT || !codetype)
 655              		.loc 1 404 0
 656 0000 11F0100F 		tst	r1, #16
 657 0004 40F02181 		bne	.L98
 658              		.loc 1 404 0 is_stmt 0 discriminator 1
 659 0008 0029     		cmp	r1, #0
 660 000a 00F01E81 		beq	.L98
 405:.\keyboard.c  **** 		return;
 406:.\keyboard.c  **** 	
 407:.\keyboard.c  **** 	if (codetype) {
 661              		.loc 1 407 0 is_stmt 1
 662 000e 0029     		cmp	r1, #0
 663 0010 00F01B81 		beq	.L98
 390:.\keyboard.c  **** 	//// Keyboard variables below
 664              		.loc 1 390 0
 665 0014 08B5     		push	{r3, lr}
 666              		.cfi_def_cfa_offset 8
 667              		.cfi_offset 3, -8
 668              		.cfi_offset 14, -4
 408:.\keyboard.c  **** 		//// Things to do when one of the E0 keys is pressed
 409:.\keyboard.c  **** 		if ((codetype & KEY_E0)&&(codetype & KEY_MAKE)) {
 669              		.loc 1 409 0
 670 0016 01F00503 		and	r3, r1, #5
 671 001a 052B     		cmp	r3, #5
 672 001c 23D1     		bne	.L73
 410:.\keyboard.c  **** 			switch(scancode) {
 673              		.loc 1 410 0
 674 001e 1428     		cmp	r0, #20
 675 0020 0FD0     		beq	.L74
 676 0022 7C28     		cmp	r0, #124
 677 0024 03D0     		beq	.L75
 678 0026 1128     		cmp	r0, #17
 679 0028 40F00E81 		bne	.L71
 680 002c 12E0     		b	.L76
 681              	.L75:
 411:.\keyboard.c  **** 			case 0x7C:	// E0 7C - PRNT SCRN
 412:.\keyboard.c  **** 				// If we successfully send and receive an echo, output to UART
 413:.\keyboard.c  **** 				if (!PS2_SendCommand(0xEE))
 682              		.loc 1 413 0
 683 002e EE20     		movs	r0, #238
 684              	.LVL112:
 685 0030 FFF7FEFF 		bl	PS2_SendCommand
 686              	.LVL113:
 687 0034 0028     		cmp	r0, #0
 688 0036 40F00781 		bne	.L71
 414:.\keyboard.c  **** 					UART_PutString("Echo Success!\r\n");
 689              		.loc 1 414 0
ARM GAS  C:\Users\addis\AppData\Local\Temp\ccSizEqd.s 			page 21


 690 003a 8448     		ldr	r0, .L99
 691 003c FFF7FEFF 		bl	UART_PutString
 692              	.LVL114:
 693 0040 08BD     		pop	{r3, pc}
 694              	.LVL115:
 695              	.L74:
 415:.\keyboard.c  **** 				break;
 416:.\keyboard.c  **** 					
 417:.\keyboard.c  **** 			case 0x14:	// E0 14 - Right Control
 418:.\keyboard.c  **** 				ctrlstatus |= 0x01;
 696              		.loc 1 418 0
 697 0042 834A     		ldr	r2, .L99+4
 698 0044 5378     		ldrb	r3, [r2, #1]	@ zero_extendqisi2
 699 0046 43F00103 		orr	r3, r3, #1
 700 004a 5370     		strb	r3, [r2, #1]
 419:.\keyboard.c  **** 				CtrlDown = 1;
 701              		.loc 1 419 0
 702 004c 0122     		movs	r2, #1
 703 004e 814B     		ldr	r3, .L99+8
 704 0050 1A70     		strb	r2, [r3]
 420:.\keyboard.c  **** 				break;
 705              		.loc 1 420 0
 706 0052 08BD     		pop	{r3, pc}
 707              	.L76:
 421:.\keyboard.c  **** 					
 422:.\keyboard.c  **** 			case 0x11:	// E0 11 - Right Alt
 423:.\keyboard.c  **** 				altstatus |= 0x01;
 708              		.loc 1 423 0
 709 0054 7E4A     		ldr	r2, .L99+4
 710 0056 9378     		ldrb	r3, [r2, #2]	@ zero_extendqisi2
 711 0058 43F00103 		orr	r3, r3, #1
 712 005c 9370     		strb	r3, [r2, #2]
 424:.\keyboard.c  **** 				AltDown = 1;
 713              		.loc 1 424 0
 714 005e 0122     		movs	r2, #1
 715 0060 7D4B     		ldr	r3, .L99+12
 716 0062 1A70     		strb	r2, [r3]
 425:.\keyboard.c  **** 				break;
 717              		.loc 1 425 0
 718 0064 08BD     		pop	{r3, pc}
 719              	.L73:
 426:.\keyboard.c  **** 					
 427:.\keyboard.c  **** 			//// Any scan codes not handled specially in the above case statements are
 428:.\keyboard.c  **** 			//// handled here:
 429:.\keyboard.c  **** 			default:
 430:.\keyboard.c  **** 				break;
 431:.\keyboard.c  **** 			}
 432:.\keyboard.c  **** 			return;
 433:.\keyboard.c  **** 		}
 434:.\keyboard.c  **** 		//
 435:.\keyboard.c  **** 		//// Things to do when one of the E0 keys is released
 436:.\keyboard.c  **** 		if ((codetype & KEY_E0) && (codetype & KEY_BREAK)) 
 720              		.loc 1 436 0
 721 0066 01F00603 		and	r3, r1, #6
 722 006a 062B     		cmp	r3, #6
 723 006c 1DD1     		bne	.L77
 437:.\keyboard.c  **** 		{
ARM GAS  C:\Users\addis\AppData\Local\Temp\ccSizEqd.s 			page 22


 438:.\keyboard.c  **** 			switch(scancode) 
 724              		.loc 1 438 0
 725 006e 1128     		cmp	r0, #17
 726 0070 0ED0     		beq	.L78
 727 0072 1428     		cmp	r0, #20
 728 0074 40F0E880 		bne	.L71
 439:.\keyboard.c  **** 			{
 440:.\keyboard.c  **** 			case 0x7C:	// E0 F0 7C - PRNT SCRN
 441:.\keyboard.c  **** 				break;
 442:.\keyboard.c  **** 			case 0x14:	// E0 F0 14 - Right Control
 443:.\keyboard.c  **** 				ctrlstatus &= ~0x01;
 729              		.loc 1 443 0
 730 0078 754A     		ldr	r2, .L99+4
 731 007a 5378     		ldrb	r3, [r2, #1]	@ zero_extendqisi2
 732 007c 03F0FE03 		and	r3, r3, #254
 733 0080 5370     		strb	r3, [r2, #1]
 444:.\keyboard.c  **** 				if (!ctrlstatus) CtrlDown = 0;
 734              		.loc 1 444 0
 735 0082 002B     		cmp	r3, #0
 736 0084 40F0E080 		bne	.L71
 737              		.loc 1 444 0 is_stmt 0 discriminator 1
 738 0088 0022     		movs	r2, #0
 739 008a 724B     		ldr	r3, .L99+8
 740 008c 1A70     		strb	r2, [r3]
 741 008e 08BD     		pop	{r3, pc}
 742              	.L78:
 445:.\keyboard.c  **** 				break;
 446:.\keyboard.c  **** 			case 0x11:	// E0 F0 11 - Right Alt
 447:.\keyboard.c  **** 				altstatus &= ~0x01;
 743              		.loc 1 447 0 is_stmt 1
 744 0090 6F4A     		ldr	r2, .L99+4
 745 0092 9378     		ldrb	r3, [r2, #2]	@ zero_extendqisi2
 746 0094 03F0FE03 		and	r3, r3, #254
 747 0098 9370     		strb	r3, [r2, #2]
 448:.\keyboard.c  **** 				if (!altstatus)
 748              		.loc 1 448 0
 749 009a 002B     		cmp	r3, #0
 750 009c 40F0D480 		bne	.L71
 449:.\keyboard.c  **** 				{	
 450:.\keyboard.c  **** 					AltDown = 0;
 751              		.loc 1 450 0
 752 00a0 6D4A     		ldr	r2, .L99+12
 753 00a2 1370     		strb	r3, [r2]
 451:.\keyboard.c  **** 					altIndex = 0;
 754              		.loc 1 451 0
 755 00a4 6A4A     		ldr	r2, .L99+4
 756 00a6 D370     		strb	r3, [r2, #3]
 757 00a8 08BD     		pop	{r3, pc}
 758              	.L77:
 452:.\keyboard.c  **** 				}
 453:.\keyboard.c  **** 				break;
 454:.\keyboard.c  **** 			//// Any scan codes not handled specially in the above case statements are
 455:.\keyboard.c  **** 			//// handled here:
 456:.\keyboard.c  **** 			default:
 457:.\keyboard.c  **** 				break;
 458:.\keyboard.c  **** 			}
 459:.\keyboard.c  **** 			return;
ARM GAS  C:\Users\addis\AppData\Local\Temp\ccSizEqd.s 			page 23


 460:.\keyboard.c  **** 		}
 461:.\keyboard.c  **** 		//
 462:.\keyboard.c  **** 		//// Things to do when one of the single byte "make" scan code keys is pressed
 463:.\keyboard.c  **** 		if (codetype & KEY_MAKE) {
 759              		.loc 1 463 0
 760 00aa 11F0010F 		tst	r1, #1
 761 00ae 00F09780 		beq	.L80
 464:.\keyboard.c  **** 			switch(scancode) {
 762              		.loc 1 464 0
 763 00b2 5828     		cmp	r0, #88
 764 00b4 54D0     		beq	.L81
 765 00b6 07D8     		bhi	.L82
 766 00b8 1228     		cmp	r0, #18
 767 00ba 15D0     		beq	.L83
 768 00bc 1428     		cmp	r0, #20
 769 00be 1CD0     		beq	.L84
 770 00c0 1128     		cmp	r0, #17
 771 00c2 40F0C180 		bne	.L71
 772 00c6 21E0     		b	.L85
 773              	.L82:
 774 00c8 7728     		cmp	r0, #119
 775 00ca 28D0     		beq	.L86
 776 00cc 7E28     		cmp	r0, #126
 777 00ce 67D0     		beq	.L87
 778 00d0 5928     		cmp	r0, #89
 779 00d2 40F0B980 		bne	.L71
 465:.\keyboard.c  **** 			case 0x59:	// Right Shift
 466:.\keyboard.c  **** 				shiftstatus |= 0x01;
 780              		.loc 1 466 0
 781 00d6 5E4A     		ldr	r2, .L99+4
 782 00d8 1379     		ldrb	r3, [r2, #4]	@ zero_extendqisi2
 783 00da 43F00103 		orr	r3, r3, #1
 784 00de 1371     		strb	r3, [r2, #4]
 467:.\keyboard.c  **** 				ShiftDown = 1;
 785              		.loc 1 467 0
 786 00e0 0122     		movs	r2, #1
 787 00e2 5E4B     		ldr	r3, .L99+16
 788 00e4 1A70     		strb	r2, [r3]
 468:.\keyboard.c  **** 				break;
 789              		.loc 1 468 0
 790 00e6 08BD     		pop	{r3, pc}
 791              	.L83:
 469:.\keyboard.c  **** 			case 0x12:	// Left Shift
 470:.\keyboard.c  **** 				shiftstatus |= 0x02;
 792              		.loc 1 470 0
 793 00e8 594A     		ldr	r2, .L99+4
 794 00ea 1379     		ldrb	r3, [r2, #4]	@ zero_extendqisi2
 795 00ec 43F00203 		orr	r3, r3, #2
 796 00f0 1371     		strb	r3, [r2, #4]
 471:.\keyboard.c  **** 				ShiftDown = 1;
 797              		.loc 1 471 0
 798 00f2 0122     		movs	r2, #1
 799 00f4 594B     		ldr	r3, .L99+16
 800 00f6 1A70     		strb	r2, [r3]
 472:.\keyboard.c  **** 				break;
 801              		.loc 1 472 0
 802 00f8 08BD     		pop	{r3, pc}
ARM GAS  C:\Users\addis\AppData\Local\Temp\ccSizEqd.s 			page 24


 803              	.L84:
 473:.\keyboard.c  **** 			case 0x14:	// Left Control
 474:.\keyboard.c  **** 				ctrlstatus |= 0x02;
 804              		.loc 1 474 0
 805 00fa 554A     		ldr	r2, .L99+4
 806 00fc 5378     		ldrb	r3, [r2, #1]	@ zero_extendqisi2
 807 00fe 43F00203 		orr	r3, r3, #2
 808 0102 5370     		strb	r3, [r2, #1]
 475:.\keyboard.c  **** 				CtrlDown = 1;
 809              		.loc 1 475 0
 810 0104 0122     		movs	r2, #1
 811 0106 534B     		ldr	r3, .L99+8
 812 0108 1A70     		strb	r2, [r3]
 476:.\keyboard.c  **** 				break;
 813              		.loc 1 476 0
 814 010a 08BD     		pop	{r3, pc}
 815              	.L85:
 477:.\keyboard.c  **** 			case 0x11:	// Left Alt
 478:.\keyboard.c  **** 				altstatus |= 0x02;
 816              		.loc 1 478 0
 817 010c 504A     		ldr	r2, .L99+4
 818 010e 9378     		ldrb	r3, [r2, #2]	@ zero_extendqisi2
 819 0110 43F00203 		orr	r3, r3, #2
 820 0114 9370     		strb	r3, [r2, #2]
 479:.\keyboard.c  **** 				AltDown = 1;
 821              		.loc 1 479 0
 822 0116 0122     		movs	r2, #1
 823 0118 4F4B     		ldr	r3, .L99+12
 824 011a 1A70     		strb	r2, [r3]
 480:.\keyboard.c  **** 				break;
 825              		.loc 1 480 0
 826 011c 08BD     		pop	{r3, pc}
 827              	.L86:
 481:.\keyboard.c  **** 			case 0x77:	// Num Lock
 482:.\keyboard.c  **** 				NumLock ^= 0x01;
 828              		.loc 1 482 0
 829 011e 504A     		ldr	r2, .L99+20
 830 0120 1378     		ldrb	r3, [r2]	@ zero_extendqisi2
 831 0122 83F00103 		eor	r3, r3, #1
 832 0126 1370     		strb	r3, [r2]
 483:.\keyboard.c  **** 				if (NumLock) {
 833              		.loc 1 483 0
 834 0128 6BB1     		cbz	r3, .L89
 484:.\keyboard.c  **** 					status = PS2_SendCommand(0xED);
 835              		.loc 1 484 0
 836 012a ED20     		movs	r0, #237
 837              	.LVL116:
 838 012c FFF7FEFF 		bl	PS2_SendCommand
 839              	.LVL117:
 485:.\keyboard.c  **** 					if (!status) {
 840              		.loc 1 485 0
 841 0130 0028     		cmp	r0, #0
 842 0132 40F08980 		bne	.L71
 486:.\keyboard.c  **** 						statusLEDs |= 0x02;
 843              		.loc 1 486 0
 844 0136 464B     		ldr	r3, .L99+4
 845 0138 5879     		ldrb	r0, [r3, #5]	@ zero_extendqisi2
ARM GAS  C:\Users\addis\AppData\Local\Temp\ccSizEqd.s 			page 25


 846              	.LVL118:
 847 013a 40F00200 		orr	r0, r0, #2
 848 013e 5871     		strb	r0, [r3, #5]
 487:.\keyboard.c  **** 						status = PS2_SendCommand(statusLEDs);
 849              		.loc 1 487 0
 850 0140 FFF7FEFF 		bl	PS2_SendCommand
 851              	.LVL119:
 852 0144 08BD     		pop	{r3, pc}
 853              	.LVL120:
 854              	.L89:
 488:.\keyboard.c  **** 					}
 489:.\keyboard.c  **** 				}
 490:.\keyboard.c  **** 				else {
 491:.\keyboard.c  **** 					status = PS2_SendCommand(0xED);
 855              		.loc 1 491 0
 856 0146 ED20     		movs	r0, #237
 857              	.LVL121:
 858 0148 FFF7FEFF 		bl	PS2_SendCommand
 859              	.LVL122:
 492:.\keyboard.c  **** 					if (!status) {
 860              		.loc 1 492 0
 861 014c 0028     		cmp	r0, #0
 862 014e 7BD1     		bne	.L71
 493:.\keyboard.c  **** 						statusLEDs &= ~0x02;
 863              		.loc 1 493 0
 864 0150 3F4B     		ldr	r3, .L99+4
 865 0152 5879     		ldrb	r0, [r3, #5]	@ zero_extendqisi2
 866              	.LVL123:
 867 0154 00F0FD00 		and	r0, r0, #253
 868 0158 5871     		strb	r0, [r3, #5]
 494:.\keyboard.c  **** 						status = PS2_SendCommand(statusLEDs);
 869              		.loc 1 494 0
 870 015a FFF7FEFF 		bl	PS2_SendCommand
 871              	.LVL124:
 872 015e 08BD     		pop	{r3, pc}
 873              	.LVL125:
 874              	.L81:
 495:.\keyboard.c  **** 					}
 496:.\keyboard.c  **** 				}
 497:.\keyboard.c  **** 				break;
 498:.\keyboard.c  **** 			case 0x58:	// Caps Lock
 499:.\keyboard.c  **** 				//// Send to the keyboard
 500:.\keyboard.c  **** 				CapsLock ^= 0x01;
 875              		.loc 1 500 0
 876 0160 404A     		ldr	r2, .L99+24
 877 0162 1378     		ldrb	r3, [r2]	@ zero_extendqisi2
 878 0164 83F00103 		eor	r3, r3, #1
 879 0168 1370     		strb	r3, [r2]
 501:.\keyboard.c  **** 				if (CapsLock) {
 880              		.loc 1 501 0
 881 016a 63B1     		cbz	r3, .L90
 502:.\keyboard.c  **** 					status = PS2_SendCommand(0xED);
 882              		.loc 1 502 0
 883 016c ED20     		movs	r0, #237
 884              	.LVL126:
 885 016e FFF7FEFF 		bl	PS2_SendCommand
 886              	.LVL127:
ARM GAS  C:\Users\addis\AppData\Local\Temp\ccSizEqd.s 			page 26


 503:.\keyboard.c  **** 					if (!status) {
 887              		.loc 1 503 0
 888 0172 0028     		cmp	r0, #0
 889 0174 68D1     		bne	.L71
 504:.\keyboard.c  **** 						statusLEDs |= 0x04;
 890              		.loc 1 504 0
 891 0176 364B     		ldr	r3, .L99+4
 892 0178 5879     		ldrb	r0, [r3, #5]	@ zero_extendqisi2
 893              	.LVL128:
 894 017a 40F00400 		orr	r0, r0, #4
 895 017e 5871     		strb	r0, [r3, #5]
 505:.\keyboard.c  **** 						status = PS2_SendCommand(statusLEDs);
 896              		.loc 1 505 0
 897 0180 FFF7FEFF 		bl	PS2_SendCommand
 898              	.LVL129:
 899 0184 08BD     		pop	{r3, pc}
 900              	.LVL130:
 901              	.L90:
 506:.\keyboard.c  **** 					}
 507:.\keyboard.c  **** 				}
 508:.\keyboard.c  **** 				else {
 509:.\keyboard.c  **** 					status = PS2_SendCommand(0xED);
 902              		.loc 1 509 0
 903 0186 ED20     		movs	r0, #237
 904              	.LVL131:
 905 0188 FFF7FEFF 		bl	PS2_SendCommand
 906              	.LVL132:
 510:.\keyboard.c  **** 					if (!status) {
 907              		.loc 1 510 0
 908 018c 0028     		cmp	r0, #0
 909 018e 5BD1     		bne	.L71
 511:.\keyboard.c  **** 						statusLEDs &= ~0x04;
 910              		.loc 1 511 0
 911 0190 2F4B     		ldr	r3, .L99+4
 912 0192 5879     		ldrb	r0, [r3, #5]	@ zero_extendqisi2
 913              	.LVL133:
 914 0194 00F0FB00 		and	r0, r0, #251
 915 0198 5871     		strb	r0, [r3, #5]
 512:.\keyboard.c  **** 						status = PS2_SendCommand(statusLEDs);
 916              		.loc 1 512 0
 917 019a FFF7FEFF 		bl	PS2_SendCommand
 918              	.LVL134:
 919 019e 08BD     		pop	{r3, pc}
 920              	.LVL135:
 921              	.L87:
 513:.\keyboard.c  **** 					}
 514:.\keyboard.c  **** 				}
 515:.\keyboard.c  **** 				break;
 516:.\keyboard.c  **** 			case 0x7E:	// Scroll Lock
 517:.\keyboard.c  **** 				//// Send to the keyboard
 518:.\keyboard.c  **** 				ScrollLock ^= 0x01;
 922              		.loc 1 518 0
 923 01a0 314A     		ldr	r2, .L99+28
 924 01a2 1378     		ldrb	r3, [r2]	@ zero_extendqisi2
 925 01a4 83F00103 		eor	r3, r3, #1
 926 01a8 1370     		strb	r3, [r2]
 519:.\keyboard.c  **** 				if (ScrollLock) {
ARM GAS  C:\Users\addis\AppData\Local\Temp\ccSizEqd.s 			page 27


 927              		.loc 1 519 0
 928 01aa 63B1     		cbz	r3, .L91
 520:.\keyboard.c  **** 					status = PS2_SendCommand(0xED);
 929              		.loc 1 520 0
 930 01ac ED20     		movs	r0, #237
 931              	.LVL136:
 932 01ae FFF7FEFF 		bl	PS2_SendCommand
 933              	.LVL137:
 521:.\keyboard.c  **** 					if (!status) {
 934              		.loc 1 521 0
 935 01b2 0028     		cmp	r0, #0
 936 01b4 48D1     		bne	.L71
 522:.\keyboard.c  **** 						statusLEDs |= 0x01;
 937              		.loc 1 522 0
 938 01b6 264B     		ldr	r3, .L99+4
 939 01b8 5879     		ldrb	r0, [r3, #5]	@ zero_extendqisi2
 940              	.LVL138:
 941 01ba 40F00100 		orr	r0, r0, #1
 942 01be 5871     		strb	r0, [r3, #5]
 523:.\keyboard.c  **** 						status = PS2_SendCommand(statusLEDs);
 943              		.loc 1 523 0
 944 01c0 FFF7FEFF 		bl	PS2_SendCommand
 945              	.LVL139:
 946 01c4 08BD     		pop	{r3, pc}
 947              	.LVL140:
 948              	.L91:
 524:.\keyboard.c  **** 					}
 525:.\keyboard.c  **** 				}
 526:.\keyboard.c  **** 				else {
 527:.\keyboard.c  **** 					status = PS2_SendCommand(0xED);
 949              		.loc 1 527 0
 950 01c6 ED20     		movs	r0, #237
 951              	.LVL141:
 952 01c8 FFF7FEFF 		bl	PS2_SendCommand
 953              	.LVL142:
 528:.\keyboard.c  **** 					if (!status) {
 954              		.loc 1 528 0
 955 01cc 0028     		cmp	r0, #0
 956 01ce 3BD1     		bne	.L71
 529:.\keyboard.c  **** 						statusLEDs &= ~0x01;
 957              		.loc 1 529 0
 958 01d0 1F4B     		ldr	r3, .L99+4
 959 01d2 5879     		ldrb	r0, [r3, #5]	@ zero_extendqisi2
 960              	.LVL143:
 961 01d4 00F0FE00 		and	r0, r0, #254
 962 01d8 5871     		strb	r0, [r3, #5]
 530:.\keyboard.c  **** 						status = PS2_SendCommand(statusLEDs);
 963              		.loc 1 530 0
 964 01da FFF7FEFF 		bl	PS2_SendCommand
 965              	.LVL144:
 966 01de 08BD     		pop	{r3, pc}
 967              	.LVL145:
 968              	.L80:
 531:.\keyboard.c  **** 					}
 532:.\keyboard.c  **** 				}
 533:.\keyboard.c  **** 				break;
 534:.\keyboard.c  **** 			
ARM GAS  C:\Users\addis\AppData\Local\Temp\ccSizEqd.s 			page 28


 535:.\keyboard.c  **** 			//// Any single-byte scan codes not handled specially in the above switch statement
 536:.\keyboard.c  **** 			//// are handled here:
 537:.\keyboard.c  **** 			default:
 538:.\keyboard.c  **** 				break;			
 539:.\keyboard.c  **** 			}
 540:.\keyboard.c  **** 			return;
 541:.\keyboard.c  **** 		}
 542:.\keyboard.c  **** 		
 543:.\keyboard.c  **** 		//// Things to do when one of the single byte "make" scan code keys is released
 544:.\keyboard.c  **** 		if (codetype & KEY_BREAK) {
 969              		.loc 1 544 0
 970 01e0 11F0020F 		tst	r1, #2
 971 01e4 30D0     		beq	.L71
 545:.\keyboard.c  **** 			switch(scancode) {
 972              		.loc 1 545 0
 973 01e6 1228     		cmp	r0, #18
 974 01e8 11D0     		beq	.L92
 975 01ea 02D8     		bhi	.L93
 976 01ec 1128     		cmp	r0, #17
 977 01ee 21D0     		beq	.L94
 978 01f0 08BD     		pop	{r3, pc}
 979              	.L93:
 980 01f2 1428     		cmp	r0, #20
 981 01f4 14D0     		beq	.L95
 982 01f6 5928     		cmp	r0, #89
 983 01f8 26D1     		bne	.L71
 546:.\keyboard.c  **** 			case 0x59:	// Right Shift
 547:.\keyboard.c  **** 				shiftstatus &= ~0x01;
 984              		.loc 1 547 0
 985 01fa 154A     		ldr	r2, .L99+4
 986 01fc 1379     		ldrb	r3, [r2, #4]	@ zero_extendqisi2
 987 01fe 03F0FE03 		and	r3, r3, #254
 988 0202 1371     		strb	r3, [r2, #4]
 548:.\keyboard.c  **** 				if (!shiftstatus) ShiftDown = 0;
 989              		.loc 1 548 0
 990 0204 03BB     		cbnz	r3, .L71
 991              		.loc 1 548 0 is_stmt 0 discriminator 1
 992 0206 0022     		movs	r2, #0
 993 0208 144B     		ldr	r3, .L99+16
 994 020a 1A70     		strb	r2, [r3]
 995 020c 08BD     		pop	{r3, pc}
 996              	.L92:
 549:.\keyboard.c  **** 				break;
 550:.\keyboard.c  **** 			case 0x12:	// Left Shift
 551:.\keyboard.c  **** 				shiftstatus &= ~0x02;
 997              		.loc 1 551 0 is_stmt 1
 998 020e 104A     		ldr	r2, .L99+4
 999 0210 1379     		ldrb	r3, [r2, #4]	@ zero_extendqisi2
 1000 0212 03F0FD03 		and	r3, r3, #253
 1001 0216 1371     		strb	r3, [r2, #4]
 552:.\keyboard.c  **** 				if (!shiftstatus) ShiftDown = 0;
 1002              		.loc 1 552 0
 1003 0218 13B9     		cbnz	r3, .L95
 1004              		.loc 1 552 0 is_stmt 0 discriminator 1
 1005 021a 0022     		movs	r2, #0
 1006 021c 0F4B     		ldr	r3, .L99+16
 1007 021e 1A70     		strb	r2, [r3]
ARM GAS  C:\Users\addis\AppData\Local\Temp\ccSizEqd.s 			page 29


 1008              	.L95:
 553:.\keyboard.c  **** 			case 0x14:	// Left Control
 554:.\keyboard.c  **** 				ctrlstatus &= ~0x02;
 1009              		.loc 1 554 0 is_stmt 1
 1010 0220 0B4A     		ldr	r2, .L99+4
 1011 0222 5378     		ldrb	r3, [r2, #1]	@ zero_extendqisi2
 1012 0224 03F0FD03 		and	r3, r3, #253
 1013 0228 5370     		strb	r3, [r2, #1]
 555:.\keyboard.c  **** 				if (!ctrlstatus) CtrlDown = 0;
 1014              		.loc 1 555 0
 1015 022a 6BB9     		cbnz	r3, .L71
 1016              		.loc 1 555 0 is_stmt 0 discriminator 1
 1017 022c 0022     		movs	r2, #0
 1018 022e 094B     		ldr	r3, .L99+8
 1019 0230 1A70     		strb	r2, [r3]
 1020 0232 08BD     		pop	{r3, pc}
 1021              	.L94:
 556:.\keyboard.c  **** 				break;
 557:.\keyboard.c  **** 			case 0x11:	// Left Alt
 558:.\keyboard.c  **** 				altstatus &= ~0x02;
 1022              		.loc 1 558 0 is_stmt 1
 1023 0234 064A     		ldr	r2, .L99+4
 1024 0236 9378     		ldrb	r3, [r2, #2]	@ zero_extendqisi2
 1025 0238 03F0FD03 		and	r3, r3, #253
 1026 023c 9370     		strb	r3, [r2, #2]
 559:.\keyboard.c  **** 				if (!altstatus) 
 1027              		.loc 1 559 0
 1028 023e 1BB9     		cbnz	r3, .L71
 560:.\keyboard.c  **** 				{	
 561:.\keyboard.c  **** 					AltDown = 0;
 1029              		.loc 1 561 0
 1030 0240 054A     		ldr	r2, .L99+12
 1031 0242 1370     		strb	r3, [r2]
 562:.\keyboard.c  **** 					altIndex = 0;
 1032              		.loc 1 562 0
 1033 0244 024A     		ldr	r2, .L99+4
 1034 0246 D370     		strb	r3, [r2, #3]
 1035              	.LVL146:
 1036              	.L71:
 1037 0248 08BD     		pop	{r3, pc}
 1038              	.LVL147:
 1039              	.L98:
 1040              		.cfi_def_cfa_offset 0
 1041              		.cfi_restore 3
 1042              		.cfi_restore 14
 1043 024a 7047     		bx	lr
 1044              	.L100:
 1045              		.align	2
 1046              	.L99:
 1047 024c 00000000 		.word	.LC0
 1048 0250 00000000 		.word	.LANCHOR0
 1049 0254 00000000 		.word	CtrlDown
 1050 0258 00000000 		.word	AltDown
 1051 025c 00000000 		.word	ShiftDown
 1052 0260 00000000 		.word	NumLock
 1053 0264 00000000 		.word	CapsLock
 1054 0268 00000000 		.word	ScrollLock
ARM GAS  C:\Users\addis\AppData\Local\Temp\ccSizEqd.s 			page 30


 1055              		.cfi_endproc
 1056              	.LFE2:
 1057              		.size	KeyboardAction, .-KeyboardAction
 1058              		.global	PianoScancode
 1059              		.global	KeypadScancode
 1060              		.global	ControlScancode
 1061              		.global	AlphabetScancode
 1062              		.global	ShiftableScancode
 1063              		.section	.rodata
 1064              		.align	2
 1065              		.set	.LANCHOR1,. + 0
 1066              		.type	ControlScancode, %object
 1067              		.size	ControlScancode, 64
 1068              	ControlScancode:
 1069 0000 01       		.byte	1
 1070 0001 1C       		.byte	28
 1071 0002 02       		.byte	2
 1072 0003 32       		.byte	50
 1073 0004 03       		.byte	3
 1074 0005 21       		.byte	33
 1075 0006 04       		.byte	4
 1076 0007 23       		.byte	35
 1077 0008 05       		.byte	5
 1078 0009 24       		.byte	36
 1079 000a 06       		.byte	6
 1080 000b 2B       		.byte	43
 1081 000c 07       		.byte	7
 1082 000d 34       		.byte	52
 1083 000e 08       		.byte	8
 1084 000f 33       		.byte	51
 1085 0010 09       		.byte	9
 1086 0011 43       		.byte	67
 1087 0012 0A       		.byte	10
 1088 0013 3B       		.byte	59
 1089 0014 0B       		.byte	11
 1090 0015 42       		.byte	66
 1091 0016 0C       		.byte	12
 1092 0017 4B       		.byte	75
 1093 0018 0D       		.byte	13
 1094 0019 3A       		.byte	58
 1095 001a 0E       		.byte	14
 1096 001b 31       		.byte	49
 1097 001c 0F       		.byte	15
 1098 001d 44       		.byte	68
 1099 001e 10       		.byte	16
 1100 001f 4D       		.byte	77
 1101 0020 11       		.byte	17
 1102 0021 15       		.byte	21
 1103 0022 12       		.byte	18
 1104 0023 2D       		.byte	45
 1105 0024 13       		.byte	19
 1106 0025 1B       		.byte	27
 1107 0026 14       		.byte	20
 1108 0027 2C       		.byte	44
 1109 0028 15       		.byte	21
 1110 0029 3C       		.byte	60
 1111 002a 16       		.byte	22
ARM GAS  C:\Users\addis\AppData\Local\Temp\ccSizEqd.s 			page 31


 1112 002b 2A       		.byte	42
 1113 002c 17       		.byte	23
 1114 002d 1D       		.byte	29
 1115 002e 18       		.byte	24
 1116 002f 22       		.byte	34
 1117 0030 19       		.byte	25
 1118 0031 35       		.byte	53
 1119 0032 1A       		.byte	26
 1120 0033 1A       		.byte	26
 1121 0034 1B       		.byte	27
 1122 0035 54       		.byte	84
 1123 0036 1C       		.byte	28
 1124 0037 5D       		.byte	93
 1125 0038 1D       		.byte	29
 1126 0039 5B       		.byte	91
 1127 003a 1E       		.byte	30
 1128 003b 36       		.byte	54
 1129 003c 1F       		.byte	31
 1130 003d 4E       		.byte	78
 1131 003e 00       		.byte	0
 1132 003f 00       		.byte	0
 1133              		.type	KeypadScancode, %object
 1134              		.size	KeypadScancode, 24
 1135              	KeypadScancode:
 1136 0040 30       		.byte	48
 1137 0041 70       		.byte	112
 1138 0042 31       		.byte	49
 1139 0043 69       		.byte	105
 1140 0044 32       		.byte	50
 1141 0045 72       		.byte	114
 1142 0046 33       		.byte	51
 1143 0047 7A       		.byte	122
 1144 0048 34       		.byte	52
 1145 0049 6B       		.byte	107
 1146 004a 35       		.byte	53
 1147 004b 73       		.byte	115
 1148 004c 36       		.byte	54
 1149 004d 74       		.byte	116
 1150 004e 37       		.byte	55
 1151 004f 6C       		.byte	108
 1152 0050 38       		.byte	56
 1153 0051 75       		.byte	117
 1154 0052 39       		.byte	57
 1155 0053 7D       		.byte	125
 1156 0054 2E       		.byte	46
 1157 0055 71       		.byte	113
 1158 0056 00       		.byte	0
 1159 0057 00       		.byte	0
 1160              		.type	AlphabetScancode, %object
 1161              		.size	AlphabetScancode, 81
 1162              	AlphabetScancode:
 1163 0058 61       		.byte	97
 1164 0059 41       		.byte	65
 1165 005a 1C       		.byte	28
 1166 005b 62       		.byte	98
 1167 005c 42       		.byte	66
 1168 005d 32       		.byte	50
ARM GAS  C:\Users\addis\AppData\Local\Temp\ccSizEqd.s 			page 32


 1169 005e 63       		.byte	99
 1170 005f 43       		.byte	67
 1171 0060 21       		.byte	33
 1172 0061 64       		.byte	100
 1173 0062 44       		.byte	68
 1174 0063 23       		.byte	35
 1175 0064 65       		.byte	101
 1176 0065 45       		.byte	69
 1177 0066 24       		.byte	36
 1178 0067 66       		.byte	102
 1179 0068 46       		.byte	70
 1180 0069 2B       		.byte	43
 1181 006a 67       		.byte	103
 1182 006b 47       		.byte	71
 1183 006c 34       		.byte	52
 1184 006d 68       		.byte	104
 1185 006e 48       		.byte	72
 1186 006f 33       		.byte	51
 1187 0070 69       		.byte	105
 1188 0071 49       		.byte	73
 1189 0072 43       		.byte	67
 1190 0073 6A       		.byte	106
 1191 0074 4A       		.byte	74
 1192 0075 3B       		.byte	59
 1193 0076 6B       		.byte	107
 1194 0077 4B       		.byte	75
 1195 0078 42       		.byte	66
 1196 0079 6C       		.byte	108
 1197 007a 4C       		.byte	76
 1198 007b 4B       		.byte	75
 1199 007c 6D       		.byte	109
 1200 007d 4D       		.byte	77
 1201 007e 3A       		.byte	58
 1202 007f 6E       		.byte	110
 1203 0080 4E       		.byte	78
 1204 0081 31       		.byte	49
 1205 0082 6F       		.byte	111
 1206 0083 4F       		.byte	79
 1207 0084 44       		.byte	68
 1208 0085 70       		.byte	112
 1209 0086 50       		.byte	80
 1210 0087 4D       		.byte	77
 1211 0088 71       		.byte	113
 1212 0089 51       		.byte	81
 1213 008a 15       		.byte	21
 1214 008b 72       		.byte	114
 1215 008c 52       		.byte	82
 1216 008d 2D       		.byte	45
 1217 008e 73       		.byte	115
 1218 008f 53       		.byte	83
 1219 0090 1B       		.byte	27
 1220 0091 74       		.byte	116
 1221 0092 54       		.byte	84
 1222 0093 2C       		.byte	44
 1223 0094 75       		.byte	117
 1224 0095 55       		.byte	85
 1225 0096 3C       		.byte	60
ARM GAS  C:\Users\addis\AppData\Local\Temp\ccSizEqd.s 			page 33


 1226 0097 76       		.byte	118
 1227 0098 56       		.byte	86
 1228 0099 2A       		.byte	42
 1229 009a 77       		.byte	119
 1230 009b 57       		.byte	87
 1231 009c 1D       		.byte	29
 1232 009d 78       		.byte	120
 1233 009e 58       		.byte	88
 1234 009f 22       		.byte	34
 1235 00a0 79       		.byte	121
 1236 00a1 59       		.byte	89
 1237 00a2 35       		.byte	53
 1238 00a3 7A       		.byte	122
 1239 00a4 5A       		.byte	90
 1240 00a5 1A       		.byte	26
 1241 00a6 00       		.byte	0
 1242 00a7 00       		.byte	0
 1243 00a8 00       		.byte	0
 1244 00a9 000000   		.space	3
 1245              		.type	ShiftableScancode, %object
 1246              		.size	ShiftableScancode, 72
 1247              	ShiftableScancode:
 1248 00ac 60       		.byte	96
 1249 00ad 7E       		.byte	126
 1250 00ae 0E       		.byte	14
 1251 00af 31       		.byte	49
 1252 00b0 21       		.byte	33
 1253 00b1 16       		.byte	22
 1254 00b2 32       		.byte	50
 1255 00b3 40       		.byte	64
 1256 00b4 1E       		.byte	30
 1257 00b5 33       		.byte	51
 1258 00b6 23       		.byte	35
 1259 00b7 26       		.byte	38
 1260 00b8 34       		.byte	52
 1261 00b9 24       		.byte	36
 1262 00ba 25       		.byte	37
 1263 00bb 35       		.byte	53
 1264 00bc 25       		.byte	37
 1265 00bd 2E       		.byte	46
 1266 00be 36       		.byte	54
 1267 00bf 5E       		.byte	94
 1268 00c0 36       		.byte	54
 1269 00c1 37       		.byte	55
 1270 00c2 26       		.byte	38
 1271 00c3 3D       		.byte	61
 1272 00c4 38       		.byte	56
 1273 00c5 2A       		.byte	42
 1274 00c6 3E       		.byte	62
 1275 00c7 39       		.byte	57
 1276 00c8 28       		.byte	40
 1277 00c9 46       		.byte	70
 1278 00ca 30       		.byte	48
 1279 00cb 29       		.byte	41
 1280 00cc 45       		.byte	69
 1281 00cd 2D       		.byte	45
 1282 00ce 5F       		.byte	95
ARM GAS  C:\Users\addis\AppData\Local\Temp\ccSizEqd.s 			page 34


 1283 00cf 4E       		.byte	78
 1284 00d0 3D       		.byte	61
 1285 00d1 2B       		.byte	43
 1286 00d2 55       		.byte	85
 1287 00d3 5B       		.byte	91
 1288 00d4 7B       		.byte	123
 1289 00d5 54       		.byte	84
 1290 00d6 5D       		.byte	93
 1291 00d7 7D       		.byte	125
 1292 00d8 5B       		.byte	91
 1293 00d9 5C       		.byte	92
 1294 00da 7C       		.byte	124
 1295 00db 5D       		.byte	93
 1296 00dc 3B       		.byte	59
 1297 00dd 3A       		.byte	58
 1298 00de 4C       		.byte	76
 1299 00df 27       		.byte	39
 1300 00e0 22       		.byte	34
 1301 00e1 52       		.byte	82
 1302 00e2 2C       		.byte	44
 1303 00e3 3C       		.byte	60
 1304 00e4 41       		.byte	65
 1305 00e5 2E       		.byte	46
 1306 00e6 3E       		.byte	62
 1307 00e7 49       		.byte	73
 1308 00e8 2F       		.byte	47
 1309 00e9 3F       		.byte	63
 1310 00ea 4A       		.byte	74
 1311 00eb 20       		.byte	32
 1312 00ec 20       		.byte	32
 1313 00ed 29       		.byte	41
 1314 00ee 09       		.byte	9
 1315 00ef 09       		.byte	9
 1316 00f0 0D       		.byte	13
 1317 00f1 00       		.byte	0
 1318 00f2 00       		.byte	0
 1319 00f3 00       		.byte	0
 1320              		.type	PianoScancode, %object
 1321              		.size	PianoScancode, 300
 1322              	PianoScancode:
 1323 00f4 1A000000 		.word	26
 1324 00f8 E3EE0000 		.word	61155
 1325 00fc 71770000 		.word	30577
 1326 0100 22000000 		.word	34
 1327 0104 D3D40000 		.word	54483
 1328 0108 696A0000 		.word	27241
 1329 010c 21000000 		.word	33
 1330 0110 9BBD0000 		.word	48539
 1331 0114 CD5E0000 		.word	24269
 1332 0118 2A000000 		.word	42
 1333 011c F6B20000 		.word	45814
 1334 0120 7B590000 		.word	22907
 1335 0124 32000000 		.word	50
 1336 0128 709F0000 		.word	40816
 1337 012c B74F0000 		.word	20407
 1338 0130 31000000 		.word	49
 1339 0134 0B8E0000 		.word	36363
ARM GAS  C:\Users\addis\AppData\Local\Temp\ccSizEqd.s 			page 35


 1340 0138 05470000 		.word	18181
 1341 013c 3A000000 		.word	58
 1342 0140 8B7E0000 		.word	32395
 1343 0144 453F0000 		.word	16197
 1344 0148 41000000 		.word	65
 1345 014c 71770000 		.word	30577
 1346 0150 B83B0000 		.word	15288
 1347 0154 1C000000 		.word	28
 1348 0158 71770000 		.word	30577
 1349 015c B83B0000 		.word	15288
 1350 0160 1B000000 		.word	27
 1351 0164 696A0000 		.word	27241
 1352 0168 34350000 		.word	13620
 1353 016c 23000000 		.word	35
 1354 0170 CD5E0000 		.word	24269
 1355 0174 662F0000 		.word	12134
 1356 0178 2B000000 		.word	43
 1357 017c 7B590000 		.word	22907
 1358 0180 BD2C0000 		.word	11453
 1359 0184 34000000 		.word	52
 1360 0188 B74F0000 		.word	20407
 1361 018c DB270000 		.word	10203
 1362 0190 33000000 		.word	51
 1363 0194 05470000 		.word	18181
 1364 0198 82230000 		.word	9090
 1365 019c 3B000000 		.word	59
 1366 01a0 453F0000 		.word	16197
 1367 01a4 A21F0000 		.word	8098
 1368 01a8 42000000 		.word	66
 1369 01ac B83B0000 		.word	15288
 1370 01b0 DC1D0000 		.word	7644
 1371 01b4 15000000 		.word	21
 1372 01b8 B83B0000 		.word	15288
 1373 01bc DC1D0000 		.word	7644
 1374 01c0 1D000000 		.word	29
 1375 01c4 34350000 		.word	13620
 1376 01c8 991A0000 		.word	6809
 1377 01cc 24000000 		.word	36
 1378 01d0 662F0000 		.word	12134
 1379 01d4 B2170000 		.word	6066
 1380 01d8 2D000000 		.word	45
 1381 01dc BD2C0000 		.word	11453
 1382 01e0 5E160000 		.word	5726
 1383 01e4 2C000000 		.word	44
 1384 01e8 DB270000 		.word	10203
 1385 01ec ED130000 		.word	5101
 1386 01f0 35000000 		.word	53
 1387 01f4 82230000 		.word	9090
 1388 01f8 C0110000 		.word	4544
 1389 01fc 3C000000 		.word	60
 1390 0200 A21F0000 		.word	8098
 1391 0204 D10F0000 		.word	4049
 1392 0208 43000000 		.word	67
 1393 020c DC1D0000 		.word	7644
 1394 0210 ED0E0000 		.word	3821
 1395 0214 00000000 		.word	0
 1396 0218 00000000 		.word	0
ARM GAS  C:\Users\addis\AppData\Local\Temp\ccSizEqd.s 			page 36


 1397 021c 00000000 		.word	0
 1398              		.section	.rodata.str1.4,"aMS",%progbits,1
 1399              		.align	2
 1400              	.LC0:
 1401 0000 4563686F 		.ascii	"Echo Success!\015\012\000"
 1401      20537563 
 1401      63657373 
 1401      210D0A00 
 1402              		.bss
 1403              		.set	.LANCHOR0,. + 0
 1404              		.type	state.5046, %object
 1405              		.size	state.5046, 1
 1406              	state.5046:
 1407 0000 00       		.space	1
 1408              		.type	ctrlstatus.5084, %object
 1409              		.size	ctrlstatus.5084, 1
 1410              	ctrlstatus.5084:
 1411 0001 00       		.space	1
 1412              		.type	altstatus.5085, %object
 1413              		.size	altstatus.5085, 1
 1414              	altstatus.5085:
 1415 0002 00       		.space	1
 1416              		.type	altIndex.5087, %object
 1417              		.size	altIndex.5087, 1
 1418              	altIndex.5087:
 1419 0003 00       		.space	1
 1420              		.type	shiftstatus.5083, %object
 1421              		.size	shiftstatus.5083, 1
 1422              	shiftstatus.5083:
 1423 0004 00       		.space	1
 1424              		.type	statusLEDs.5082, %object
 1425              		.size	statusLEDs.5082, 1
 1426              	statusLEDs.5082:
 1427 0005 00       		.space	1
 1428              		.text
 1429              	.Letext0:
 1430              		.file 2 "Generated_Source\\PSoC5/cytypes.h"
 1431              		.file 3 "Generated_Source\\PSoC5/PS2.h"
 1432              		.file 4 "Generated_Source\\PSoC5/UART.h"