ARM GAS  C:\Users\addis\AppData\Local\Temp\ccUS9kEI.s 			page 1


   1              		.syntax unified
   2              		.cpu cortex-m3
   3              		.fpu softvfp
   4              		.eabi_attribute 20, 1
   5              		.eabi_attribute 21, 1
   6              		.eabi_attribute 23, 3
   7              		.eabi_attribute 24, 1
   8              		.eabi_attribute 25, 1
   9              		.eabi_attribute 26, 1
  10              		.eabi_attribute 30, 1
  11              		.eabi_attribute 34, 1
  12              		.eabi_attribute 18, 4
  13              		.thumb
  14              		.file	"LCD_SegStatic_1.c"
  15              		.text
  16              	.Ltext0:
  17              		.cfi_sections	.debug_frame
  18              		.section	.text.LCD_SegStatic_1_DmaConfigure,"ax",%progbits
  19              		.align	2
  20              		.thumb
  21              		.thumb_func
  22              		.type	LCD_SegStatic_1_DmaConfigure, %function
  23              	LCD_SegStatic_1_DmaConfigure:
  24              	.LFB2:
  25              		.file 1 ".\\Generated_Source\\PSoC5\\LCD_SegStatic_1.c"
   1:.\Generated_Source\PSoC5/LCD_SegStatic_1.c **** /*******************************************************************************
   2:.\Generated_Source\PSoC5/LCD_SegStatic_1.c **** * File Name: LCD_SegStatic_1.c
   3:.\Generated_Source\PSoC5/LCD_SegStatic_1.c **** * Version 2.30
   4:.\Generated_Source\PSoC5/LCD_SegStatic_1.c **** *
   5:.\Generated_Source\PSoC5/LCD_SegStatic_1.c **** * Description:
   6:.\Generated_Source\PSoC5/LCD_SegStatic_1.c **** *  This file provides the API source code for the Static Segment LCD component.
   7:.\Generated_Source\PSoC5/LCD_SegStatic_1.c **** *
   8:.\Generated_Source\PSoC5/LCD_SegStatic_1.c **** * Note:
   9:.\Generated_Source\PSoC5/LCD_SegStatic_1.c **** *
  10:.\Generated_Source\PSoC5/LCD_SegStatic_1.c **** ********************************************************************************
  11:.\Generated_Source\PSoC5/LCD_SegStatic_1.c **** * Copyright 2008-2013, Cypress Semiconductor Corporation.  All rights reserved.
  12:.\Generated_Source\PSoC5/LCD_SegStatic_1.c **** * You may use this file only in accordance with the license, terms, conditions,
  13:.\Generated_Source\PSoC5/LCD_SegStatic_1.c **** * disclaimers, and limitations in the end user license agreement accompanying
  14:.\Generated_Source\PSoC5/LCD_SegStatic_1.c **** * the software package with which this file was provided.
  15:.\Generated_Source\PSoC5/LCD_SegStatic_1.c **** *******************************************************************************/
  16:.\Generated_Source\PSoC5/LCD_SegStatic_1.c **** 
  17:.\Generated_Source\PSoC5/LCD_SegStatic_1.c **** #include "LCD_SegStatic_1.h"
  18:.\Generated_Source\PSoC5/LCD_SegStatic_1.c **** #include <LCD_SegStatic_1_InClock.h>
  19:.\Generated_Source\PSoC5/LCD_SegStatic_1.c **** #include <LCD_SegStatic_1_LCD_ISR.h>
  20:.\Generated_Source\PSoC5/LCD_SegStatic_1.c **** #include <LCD_SegStatic_1_Lcd_Dma_dma.h>
  21:.\Generated_Source\PSoC5/LCD_SegStatic_1.c **** 
  22:.\Generated_Source\PSoC5/LCD_SegStatic_1.c **** static uint8  LCD_SegStatic_1_DmaConfigure(void) CYREENTRANT;
  23:.\Generated_Source\PSoC5/LCD_SegStatic_1.c **** static void   LCD_SegStatic_1_DmaDispose(void) CYREENTRANT;
  24:.\Generated_Source\PSoC5/LCD_SegStatic_1.c **** 
  25:.\Generated_Source\PSoC5/LCD_SegStatic_1.c **** 
  26:.\Generated_Source\PSoC5/LCD_SegStatic_1.c **** /* Look-up tables for different kinds of displays */
  27:.\Generated_Source\PSoC5/LCD_SegStatic_1.c **** #ifdef LCD_SegStatic_1_7SEG
  28:.\Generated_Source\PSoC5/LCD_SegStatic_1.c **** 
  29:.\Generated_Source\PSoC5/LCD_SegStatic_1.c ****     static const uint8 CYCODE LCD_SegStatic_1_7SegDigits[] =
  30:.\Generated_Source\PSoC5/LCD_SegStatic_1.c ****     /* '0'   '1'    '2'    '3'    '4'    '5'    '6'    '7' */
  31:.\Generated_Source\PSoC5/LCD_SegStatic_1.c ****     {0x3fu, 0x06u, 0x5bu, 0x4fu, 0x66u, 0x6du, 0x7du, 0x07u,
  32:.\Generated_Source\PSoC5/LCD_SegStatic_1.c ****     /* '8'  '9'    'A'    'B'    'C'    'D'    'E'    'F'   null */
ARM GAS  C:\Users\addis\AppData\Local\Temp\ccUS9kEI.s 			page 2


  33:.\Generated_Source\PSoC5/LCD_SegStatic_1.c ****     0x7fu, 0x6fu, 0x77u, 0x7cu, 0x39u, 0x5eu, 0x79u, 0x71u, 0x00u};
  34:.\Generated_Source\PSoC5/LCD_SegStatic_1.c **** 
  35:.\Generated_Source\PSoC5/LCD_SegStatic_1.c **** #endif /* LCD_SegStatic_1_7SEG */
  36:.\Generated_Source\PSoC5/LCD_SegStatic_1.c **** 
  37:.\Generated_Source\PSoC5/LCD_SegStatic_1.c **** #ifdef ALPHANUMERIC
  38:.\Generated_Source\PSoC5/LCD_SegStatic_1.c **** 
  39:.\Generated_Source\PSoC5/LCD_SegStatic_1.c ****     #ifdef LCD_SegStatic_1_14SEG
  40:.\Generated_Source\PSoC5/LCD_SegStatic_1.c **** 
  41:.\Generated_Source\PSoC5/LCD_SegStatic_1.c ****         static const uint16 CYCODE LCD_SegStatic_1_14SegChars[] = {
  42:.\Generated_Source\PSoC5/LCD_SegStatic_1.c ****         /*------------------------------------------------------------*/
  43:.\Generated_Source\PSoC5/LCD_SegStatic_1.c ****         /*                           Blank                            */
  44:.\Generated_Source\PSoC5/LCD_SegStatic_1.c ****         /*------------------------------------------------------------*/
  45:.\Generated_Source\PSoC5/LCD_SegStatic_1.c ****         0x0000u,0x0000u,0x0000u,0x0000u,0x0000u,0x0000u,0x0000u,0x0000u,
  46:.\Generated_Source\PSoC5/LCD_SegStatic_1.c ****         0x0000u,0x0000u,0x0000u,0x0000u,0x0000u,0x0000u,0x0000u,0x0000u,
  47:.\Generated_Source\PSoC5/LCD_SegStatic_1.c ****         0x0000u,0x0000u,0x0000u,0x0000u,0x0000u,0x0000u,0x0000u,0x0000u,
  48:.\Generated_Source\PSoC5/LCD_SegStatic_1.c ****         0x0000u,0x0000u,0x0000u,0x0000u,0x0000u,0x0000u,0x0000u,0x0000u,
  49:.\Generated_Source\PSoC5/LCD_SegStatic_1.c ****         /*------------------------------------------------------------*/
  50:.\Generated_Source\PSoC5/LCD_SegStatic_1.c ****         /*         !       "       #       $       %       &       '  */
  51:.\Generated_Source\PSoC5/LCD_SegStatic_1.c ****         /*------------------------------------------------------------*/
  52:.\Generated_Source\PSoC5/LCD_SegStatic_1.c ****         0x0000u,0x0006u,0x0120u,0x3fffu,0x156du,0x2ee4u,0x2a8du,0x0200u,
  53:.\Generated_Source\PSoC5/LCD_SegStatic_1.c ****         /*------------------------------------------------------------*/
  54:.\Generated_Source\PSoC5/LCD_SegStatic_1.c ****         /* (       )       *       +       ,       -       .       /  */
  55:.\Generated_Source\PSoC5/LCD_SegStatic_1.c ****         /*------------------------------------------------------------*/
  56:.\Generated_Source\PSoC5/LCD_SegStatic_1.c ****         0x0a00u,0x2080u,0x3fc0u,0x1540u,0x2000u,0x0440u,0x1058u,0x2200u,
  57:.\Generated_Source\PSoC5/LCD_SegStatic_1.c ****         /*------------------------------------------------------------*/
  58:.\Generated_Source\PSoC5/LCD_SegStatic_1.c ****         /* 0       1       2       3       4       5       6       7  */
  59:.\Generated_Source\PSoC5/LCD_SegStatic_1.c ****         /*------------------------------------------------------------*/
  60:.\Generated_Source\PSoC5/LCD_SegStatic_1.c ****         0x223fu,0x0206u,0x045bu,0x040fu,0x0466u,0x0869u,0x047du,0x1201u,
  61:.\Generated_Source\PSoC5/LCD_SegStatic_1.c ****         /*------------------------------------------------------------*/
  62:.\Generated_Source\PSoC5/LCD_SegStatic_1.c ****         /* 8       9       :       ;       <       =       >       ?  */
  63:.\Generated_Source\PSoC5/LCD_SegStatic_1.c ****         /*------------------------------------------------------------*/
  64:.\Generated_Source\PSoC5/LCD_SegStatic_1.c ****         0x047fu,0x046fu,0x1100u,0x2100u,0x0a00u,0x0448u,0x2080u,0x1423u,
  65:.\Generated_Source\PSoC5/LCD_SegStatic_1.c ****         /*------------------------------------------------------------*/
  66:.\Generated_Source\PSoC5/LCD_SegStatic_1.c ****         /* @       A       B       C       D       E       F       G  */
  67:.\Generated_Source\PSoC5/LCD_SegStatic_1.c ****         /*------------------------------------------------------------*/
  68:.\Generated_Source\PSoC5/LCD_SegStatic_1.c ****         0x053bu,0x0477u,0x150fu,0x0039u,0x110Fu,0x0079u,0x0071u,0x043du,
  69:.\Generated_Source\PSoC5/LCD_SegStatic_1.c ****         /*------------------------------------------------------------*/
  70:.\Generated_Source\PSoC5/LCD_SegStatic_1.c ****         /* H       I       J       K       L       M       N       O  */
  71:.\Generated_Source\PSoC5/LCD_SegStatic_1.c ****         /*------------------------------------------------------------*/
  72:.\Generated_Source\PSoC5/LCD_SegStatic_1.c ****         0x0476u,0x1100u,0x001eu,0x0a70u,0x0038u,0x02b6u,0x08b6u,0x003fu,
  73:.\Generated_Source\PSoC5/LCD_SegStatic_1.c ****         /*------------------------------------------------------------*/
  74:.\Generated_Source\PSoC5/LCD_SegStatic_1.c ****         /* P       Q       R       S       T       U       V       W  */
  75:.\Generated_Source\PSoC5/LCD_SegStatic_1.c ****         /*------------------------------------------------------------*/
  76:.\Generated_Source\PSoC5/LCD_SegStatic_1.c ****         0x0473u,0x083fu,0x0C73u,0x046du,0x1101u,0x003eu,0x2230u,0x2836u,
  77:.\Generated_Source\PSoC5/LCD_SegStatic_1.c ****         /*------------------------------------------------------------*/
  78:.\Generated_Source\PSoC5/LCD_SegStatic_1.c ****         /* X       Y       Z       [       \       ]       ^       _  */
  79:.\Generated_Source\PSoC5/LCD_SegStatic_1.c ****         /*------------------------------------------------------------*/
  80:.\Generated_Source\PSoC5/LCD_SegStatic_1.c ****         0x2a80u,0x1462u,0x2209u,0x0039u,0x0880u,0x000fu,0x0003u,0x0008u,
  81:.\Generated_Source\PSoC5/LCD_SegStatic_1.c ****         /*------------------------------------------------------------*/
  82:.\Generated_Source\PSoC5/LCD_SegStatic_1.c ****         /* @       a       b       c       d       e       f       g  */
  83:.\Generated_Source\PSoC5/LCD_SegStatic_1.c ****         /*------------------------------------------------------------*/
  84:.\Generated_Source\PSoC5/LCD_SegStatic_1.c ****         0x053bu,0x0477u,0x150fu,0x0039u,0x110Fu,0x0079u,0x0071u,0x043du,
  85:.\Generated_Source\PSoC5/LCD_SegStatic_1.c ****         /*------------------------------------------------------------*/
  86:.\Generated_Source\PSoC5/LCD_SegStatic_1.c ****         /* h       i       j       k       l       m       n       o  */
  87:.\Generated_Source\PSoC5/LCD_SegStatic_1.c ****         /*------------------------------------------------------------*/
  88:.\Generated_Source\PSoC5/LCD_SegStatic_1.c ****         0x0476u,0x1100u,0x001eu,0x0a70u,0x0038u,0x02b6u,0x08b6u,0x003fu,
  89:.\Generated_Source\PSoC5/LCD_SegStatic_1.c ****         /*------------------------------------------------------------*/
ARM GAS  C:\Users\addis\AppData\Local\Temp\ccUS9kEI.s 			page 3


  90:.\Generated_Source\PSoC5/LCD_SegStatic_1.c ****         /* p       q       r       s       t       u       v       w  */
  91:.\Generated_Source\PSoC5/LCD_SegStatic_1.c ****         /*------------------------------------------------------------*/
  92:.\Generated_Source\PSoC5/LCD_SegStatic_1.c ****         0x0473u,0x083fu,0x0C73u,0x046du,0x1101u,0x003eu,0x2230u,0x2836u,
  93:.\Generated_Source\PSoC5/LCD_SegStatic_1.c ****         /*------------------------------------------------------------*/
  94:.\Generated_Source\PSoC5/LCD_SegStatic_1.c ****         /* x       y       z       {       |       }        ~      O  */
  95:.\Generated_Source\PSoC5/LCD_SegStatic_1.c ****         /*------------------------------------------------------------*/
  96:.\Generated_Source\PSoC5/LCD_SegStatic_1.c ****         0x2a80u,0x1280u,0x2209u,0x0e00u,0x1100u,0x20C0u,0x0452u,0x003fu};
  97:.\Generated_Source\PSoC5/LCD_SegStatic_1.c **** 
  98:.\Generated_Source\PSoC5/LCD_SegStatic_1.c ****     #endif /* LCD_SegStatic_1_14SEG */
  99:.\Generated_Source\PSoC5/LCD_SegStatic_1.c **** 
 100:.\Generated_Source\PSoC5/LCD_SegStatic_1.c ****     #ifdef LCD_SegStatic_1_16SEG
 101:.\Generated_Source\PSoC5/LCD_SegStatic_1.c **** 
 102:.\Generated_Source\PSoC5/LCD_SegStatic_1.c ****         static const uint16 CYCODE LCD_SegStatic_1_16SegChars[] = {
 103:.\Generated_Source\PSoC5/LCD_SegStatic_1.c ****         /*------------------------------------------------------------*/
 104:.\Generated_Source\PSoC5/LCD_SegStatic_1.c ****         /*                           Blank                            */
 105:.\Generated_Source\PSoC5/LCD_SegStatic_1.c ****         /*------------------------------------------------------------*/
 106:.\Generated_Source\PSoC5/LCD_SegStatic_1.c ****         0x0000u,0x0000u,0x0000u,0x0000u,0x0000u,0x0000u,0x0000u,0x0000u,
 107:.\Generated_Source\PSoC5/LCD_SegStatic_1.c ****         0x0000u,0x0000u,0x0000u,0x0000u,0x0000u,0x0000u,0x0000u,0x0000u,
 108:.\Generated_Source\PSoC5/LCD_SegStatic_1.c ****         0x0000u,0x0000u,0x0000u,0x0000u,0x0000u,0x0000u,0x0000u,0x0000u,
 109:.\Generated_Source\PSoC5/LCD_SegStatic_1.c ****         0x0000u,0x0000u,0x0000u,0x0000u,0x0000u,0x0000u,0x0000u,0x0000u,
 110:.\Generated_Source\PSoC5/LCD_SegStatic_1.c ****         /*------------------------------------------------------------*/
 111:.\Generated_Source\PSoC5/LCD_SegStatic_1.c ****         /*         !       "       #       $       %       &       '  */
 112:.\Generated_Source\PSoC5/LCD_SegStatic_1.c ****         /*------------------------------------------------------------*/
 113:.\Generated_Source\PSoC5/LCD_SegStatic_1.c ****         0x0000u,0x000cu,0x0480u,0xffffu,0x55bbu,0xdd99u,0xaa3bu,0x0800u,
 114:.\Generated_Source\PSoC5/LCD_SegStatic_1.c ****         /*------------------------------------------------------------*/
 115:.\Generated_Source\PSoC5/LCD_SegStatic_1.c ****         /* (       )       *       +       ,       -       .       /  */
 116:.\Generated_Source\PSoC5/LCD_SegStatic_1.c ****         /*------------------------------------------------------------*/
 117:.\Generated_Source\PSoC5/LCD_SegStatic_1.c ****         0x2800u,0x8200u,0xff00u,0x5500u,0x8000u,0x1100u,0x4160u,0x8800u,
 118:.\Generated_Source\PSoC5/LCD_SegStatic_1.c ****         /*------------------------------------------------------------*/
 119:.\Generated_Source\PSoC5/LCD_SegStatic_1.c ****         /* 0       1       2       3       4       5       6       7  */
 120:.\Generated_Source\PSoC5/LCD_SegStatic_1.c ****         /*------------------------------------------------------------*/
 121:.\Generated_Source\PSoC5/LCD_SegStatic_1.c ****         0x88ffu,0x000cu,0x1177u,0x103fu,0x118cu,0x21b3u,0x11fbu,0x4803u,
 122:.\Generated_Source\PSoC5/LCD_SegStatic_1.c ****         /*------------------------------------------------------------*/
 123:.\Generated_Source\PSoC5/LCD_SegStatic_1.c ****         /* 8       9       :       ;       <       =       >       ?  */
 124:.\Generated_Source\PSoC5/LCD_SegStatic_1.c ****         /*------------------------------------------------------------*/
 125:.\Generated_Source\PSoC5/LCD_SegStatic_1.c ****         0x11ffu,0x11bfu,0x4400u,0x8400u,0x2800u,0x1130u,0x8200u,0x5087u,
 126:.\Generated_Source\PSoC5/LCD_SegStatic_1.c ****         /*------------------------------------------------------------*/
 127:.\Generated_Source\PSoC5/LCD_SegStatic_1.c ****         /* @       A       B       C       D       E       F       G  */
 128:.\Generated_Source\PSoC5/LCD_SegStatic_1.c ****         /*------------------------------------------------------------*/
 129:.\Generated_Source\PSoC5/LCD_SegStatic_1.c ****         0x14f7u,0x11cfu,0x543fu,0x00f3u,0x443fu,0x01f3u,0x01c3u,0x10fbu,
 130:.\Generated_Source\PSoC5/LCD_SegStatic_1.c ****         /*------------------------------------------------------------*/
 131:.\Generated_Source\PSoC5/LCD_SegStatic_1.c ****         /* H       I       J       K       L       M       N       O  */
 132:.\Generated_Source\PSoC5/LCD_SegStatic_1.c ****         /*------------------------------------------------------------*/
 133:.\Generated_Source\PSoC5/LCD_SegStatic_1.c ****         0x11ccu,0x4400u,0x007eu,0x29c0u,0x00f0u,0x0accu,0x22ccu,0x00ffu,
 134:.\Generated_Source\PSoC5/LCD_SegStatic_1.c ****         /*------------------------------------------------------------*/
 135:.\Generated_Source\PSoC5/LCD_SegStatic_1.c ****         /* P       Q       R       S       T       U       V       W  */
 136:.\Generated_Source\PSoC5/LCD_SegStatic_1.c ****         /*------------------------------------------------------------*/
 137:.\Generated_Source\PSoC5/LCD_SegStatic_1.c ****         0x11c7u,0x20ffu,0x31c7u,0x11bbu,0x4403u,0x00fcu,0x88c0u,0xa0ccu,
 138:.\Generated_Source\PSoC5/LCD_SegStatic_1.c ****         /*------------------------------------------------------------*/
 139:.\Generated_Source\PSoC5/LCD_SegStatic_1.c ****         /* X       Y       Z       [       \       ]       ^       _  */
 140:.\Generated_Source\PSoC5/LCD_SegStatic_1.c ****         /*------------------------------------------------------------*/
 141:.\Generated_Source\PSoC5/LCD_SegStatic_1.c ****         0xaa00u,0x5184u,0x8833u,0x4412u,0x2200u,0x4421u,0x0006u,0x0030u,
 142:.\Generated_Source\PSoC5/LCD_SegStatic_1.c ****         /*------------------------------------------------------------*/
 143:.\Generated_Source\PSoC5/LCD_SegStatic_1.c ****         /* @       a       b       c       d       e       f       g  */
 144:.\Generated_Source\PSoC5/LCD_SegStatic_1.c ****         /*------------------------------------------------------------*/
 145:.\Generated_Source\PSoC5/LCD_SegStatic_1.c ****         0x14f7u,0x11cfu,0x543fu,0x00f3u,0x443fu,0x01f3u,0x01c3u,0x10fbu,
 146:.\Generated_Source\PSoC5/LCD_SegStatic_1.c ****         /*------------------------------------------------------------*/
ARM GAS  C:\Users\addis\AppData\Local\Temp\ccUS9kEI.s 			page 4


 147:.\Generated_Source\PSoC5/LCD_SegStatic_1.c ****         /* h       i       j       k       l       m       n       o  */
 148:.\Generated_Source\PSoC5/LCD_SegStatic_1.c ****         /*------------------------------------------------------------*/
 149:.\Generated_Source\PSoC5/LCD_SegStatic_1.c ****         0x11ccu,0x4400u,0x007eu,0x29c0u,0x00f0u,0x0accu,0x22ccu,0x00ffu,
 150:.\Generated_Source\PSoC5/LCD_SegStatic_1.c ****         /*------------------------------------------------------------*/
 151:.\Generated_Source\PSoC5/LCD_SegStatic_1.c ****         /* p       q       r       s       t       u       v       w  */
 152:.\Generated_Source\PSoC5/LCD_SegStatic_1.c ****         /*------------------------------------------------------------*/
 153:.\Generated_Source\PSoC5/LCD_SegStatic_1.c ****         0x11c7u,0x20ffu,0x31c7u,0x11bbu,0x4403u,0x00fcu,0x88c0u,0xa0ccu,
 154:.\Generated_Source\PSoC5/LCD_SegStatic_1.c ****         /*------------------------------------------------------------*/
 155:.\Generated_Source\PSoC5/LCD_SegStatic_1.c ****         /* x       y       z       {       |       }        ~         */
 156:.\Generated_Source\PSoC5/LCD_SegStatic_1.c ****         /*------------------------------------------------------------*/
 157:.\Generated_Source\PSoC5/LCD_SegStatic_1.c ****         0xaa00u,0x4A00u,0x8833u,0x3800u,0x4400u,0x8300u,0x1144u,0x0000u};
 158:.\Generated_Source\PSoC5/LCD_SegStatic_1.c **** 
 159:.\Generated_Source\PSoC5/LCD_SegStatic_1.c ****     #endif /* LCD_SegStatic_1_16SEG */
 160:.\Generated_Source\PSoC5/LCD_SegStatic_1.c **** 
 161:.\Generated_Source\PSoC5/LCD_SegStatic_1.c **** #endif /* ALPHANUMERIC */
 162:.\Generated_Source\PSoC5/LCD_SegStatic_1.c **** 
 163:.\Generated_Source\PSoC5/LCD_SegStatic_1.c **** /* Frame Buffer */
 164:.\Generated_Source\PSoC5/LCD_SegStatic_1.c **** static uint8 LCD_SegStatic_1_buffer[LCD_SegStatic_1_BUFFER_LENGTH] ;
 165:.\Generated_Source\PSoC5/LCD_SegStatic_1.c **** 
 166:.\Generated_Source\PSoC5/LCD_SegStatic_1.c **** /* Array of common port TDs */
 167:.\Generated_Source\PSoC5/LCD_SegStatic_1.c **** static uint8 LCD_SegStatic_1_lcdTd[LCD_SegStatic_1_LCD_TD_SIZE * LCD_SegStatic_1_COMM_NUM];
 168:.\Generated_Source\PSoC5/LCD_SegStatic_1.c **** 
 169:.\Generated_Source\PSoC5/LCD_SegStatic_1.c **** /* DMA channel dedicated for SegLCD commons */
 170:.\Generated_Source\PSoC5/LCD_SegStatic_1.c **** static uint8 LCD_SegStatic_1_lcdChannel;
 171:.\Generated_Source\PSoC5/LCD_SegStatic_1.c **** 
 172:.\Generated_Source\PSoC5/LCD_SegStatic_1.c **** uint8 LCD_SegStatic_1_initVar = 0u;
 173:.\Generated_Source\PSoC5/LCD_SegStatic_1.c **** 
 174:.\Generated_Source\PSoC5/LCD_SegStatic_1.c **** /* Saves state of the component if it turned on or off */
 175:.\Generated_Source\PSoC5/LCD_SegStatic_1.c **** uint8 LCD_SegStatic_1_enableState = 0u;
 176:.\Generated_Source\PSoC5/LCD_SegStatic_1.c **** 
 177:.\Generated_Source\PSoC5/LCD_SegStatic_1.c **** /* Start of customizer generated code */
 178:.\Generated_Source\PSoC5/LCD_SegStatic_1.c **** 
 179:.\Generated_Source\PSoC5/LCD_SegStatic_1.c **** static uint16 CYCODE LCD_SegStatic_1_commons[1u] = {LCD_SegStatic_1_Com0};
 180:.\Generated_Source\PSoC5/LCD_SegStatic_1.c **** 
 181:.\Generated_Source\PSoC5/LCD_SegStatic_1.c **** 
 182:.\Generated_Source\PSoC5/LCD_SegStatic_1.c **** /*******************************************************************************
 183:.\Generated_Source\PSoC5/LCD_SegStatic_1.c **** * Function Name: LCD_SegStatic_1_Init
 184:.\Generated_Source\PSoC5/LCD_SegStatic_1.c **** ********************************************************************************
 185:.\Generated_Source\PSoC5/LCD_SegStatic_1.c **** *
 186:.\Generated_Source\PSoC5/LCD_SegStatic_1.c **** * Summary:
 187:.\Generated_Source\PSoC5/LCD_SegStatic_1.c **** *  Configures every-frame ISR and initializes a Frame Buffer.
 188:.\Generated_Source\PSoC5/LCD_SegStatic_1.c **** *
 189:.\Generated_Source\PSoC5/LCD_SegStatic_1.c **** * Parameters:
 190:.\Generated_Source\PSoC5/LCD_SegStatic_1.c **** *  None.
 191:.\Generated_Source\PSoC5/LCD_SegStatic_1.c **** *
 192:.\Generated_Source\PSoC5/LCD_SegStatic_1.c **** * Return:
 193:.\Generated_Source\PSoC5/LCD_SegStatic_1.c **** *  None.
 194:.\Generated_Source\PSoC5/LCD_SegStatic_1.c **** *
 195:.\Generated_Source\PSoC5/LCD_SegStatic_1.c **** * Reentrant:
 196:.\Generated_Source\PSoC5/LCD_SegStatic_1.c **** *  No.
 197:.\Generated_Source\PSoC5/LCD_SegStatic_1.c **** *
 198:.\Generated_Source\PSoC5/LCD_SegStatic_1.c **** *******************************************************************************/
 199:.\Generated_Source\PSoC5/LCD_SegStatic_1.c **** void LCD_SegStatic_1_Init(void) 
 200:.\Generated_Source\PSoC5/LCD_SegStatic_1.c **** {
 201:.\Generated_Source\PSoC5/LCD_SegStatic_1.c ****     LCD_SegStatic_1_ClearDisplay();
 202:.\Generated_Source\PSoC5/LCD_SegStatic_1.c **** 
 203:.\Generated_Source\PSoC5/LCD_SegStatic_1.c ****     /*ISR initialization */
ARM GAS  C:\Users\addis\AppData\Local\Temp\ccUS9kEI.s 			page 5


 204:.\Generated_Source\PSoC5/LCD_SegStatic_1.c ****     CyIntDisable(LCD_SegStatic_1_ISR_NUMBER);
 205:.\Generated_Source\PSoC5/LCD_SegStatic_1.c **** 
 206:.\Generated_Source\PSoC5/LCD_SegStatic_1.c ****     /* Set the ISR to point to the RTC_SUT_isr Interrupt. */
 207:.\Generated_Source\PSoC5/LCD_SegStatic_1.c ****     (void) CyIntSetVector(LCD_SegStatic_1_ISR_NUMBER, &LCD_SegStatic_1_ISR);
 208:.\Generated_Source\PSoC5/LCD_SegStatic_1.c **** 
 209:.\Generated_Source\PSoC5/LCD_SegStatic_1.c ****     /* Set the priority. */
 210:.\Generated_Source\PSoC5/LCD_SegStatic_1.c ****     CyIntSetPriority(LCD_SegStatic_1_ISR_NUMBER, LCD_SegStatic_1_ISR_PRIORITY);
 211:.\Generated_Source\PSoC5/LCD_SegStatic_1.c **** }
 212:.\Generated_Source\PSoC5/LCD_SegStatic_1.c **** 
 213:.\Generated_Source\PSoC5/LCD_SegStatic_1.c **** 
 214:.\Generated_Source\PSoC5/LCD_SegStatic_1.c **** /*******************************************************************************
 215:.\Generated_Source\PSoC5/LCD_SegStatic_1.c **** * Function Name: LCD_SegStatic_1_Enable
 216:.\Generated_Source\PSoC5/LCD_SegStatic_1.c **** ********************************************************************************
 217:.\Generated_Source\PSoC5/LCD_SegStatic_1.c **** *
 218:.\Generated_Source\PSoC5/LCD_SegStatic_1.c **** * Summary:
 219:.\Generated_Source\PSoC5/LCD_SegStatic_1.c **** *  Enables clock generation for the component and configures DMA channels.
 220:.\Generated_Source\PSoC5/LCD_SegStatic_1.c **** *
 221:.\Generated_Source\PSoC5/LCD_SegStatic_1.c **** * Parameters:
 222:.\Generated_Source\PSoC5/LCD_SegStatic_1.c **** *  None.
 223:.\Generated_Source\PSoC5/LCD_SegStatic_1.c **** *
 224:.\Generated_Source\PSoC5/LCD_SegStatic_1.c **** * Return:
 225:.\Generated_Source\PSoC5/LCD_SegStatic_1.c **** *  Status one of standard status for PSoC3 Component:
 226:.\Generated_Source\PSoC5/LCD_SegStatic_1.c **** *      CYRET_SUCCESS - Function completed successfully.
 227:.\Generated_Source\PSoC5/LCD_SegStatic_1.c **** *      CYRET_LOCKED - The object was locked, already in use. Some of TDs or
 228:.\Generated_Source\PSoC5/LCD_SegStatic_1.c **** *                     a channel already in use.
 229:.\Generated_Source\PSoC5/LCD_SegStatic_1.c **** *
 230:.\Generated_Source\PSoC5/LCD_SegStatic_1.c **** * Global variables:
 231:.\Generated_Source\PSoC5/LCD_SegStatic_1.c **** *  LCD_SegStatic_1_enableState - Initializes variable to '1', it means that
 232:.\Generated_Source\PSoC5/LCD_SegStatic_1.c **** *  the component was initialized and enabled before entering into a Sleep.
 233:.\Generated_Source\PSoC5/LCD_SegStatic_1.c **** *
 234:.\Generated_Source\PSoC5/LCD_SegStatic_1.c **** * Reentrant:
 235:.\Generated_Source\PSoC5/LCD_SegStatic_1.c **** *  No.
 236:.\Generated_Source\PSoC5/LCD_SegStatic_1.c **** *
 237:.\Generated_Source\PSoC5/LCD_SegStatic_1.c **** *******************************************************************************/
 238:.\Generated_Source\PSoC5/LCD_SegStatic_1.c **** uint8 LCD_SegStatic_1_Enable(void) 
 239:.\Generated_Source\PSoC5/LCD_SegStatic_1.c **** {
 240:.\Generated_Source\PSoC5/LCD_SegStatic_1.c ****     uint8 status;
 241:.\Generated_Source\PSoC5/LCD_SegStatic_1.c **** 
 242:.\Generated_Source\PSoC5/LCD_SegStatic_1.c ****     /* Configure DMA TDs and return status */
 243:.\Generated_Source\PSoC5/LCD_SegStatic_1.c ****     status = LCD_SegStatic_1_DmaConfigure();
 244:.\Generated_Source\PSoC5/LCD_SegStatic_1.c **** 
 245:.\Generated_Source\PSoC5/LCD_SegStatic_1.c ****     /* Enable Internal clock */
 246:.\Generated_Source\PSoC5/LCD_SegStatic_1.c ****     LCD_SegStatic_1_InClock_Enable();
 247:.\Generated_Source\PSoC5/LCD_SegStatic_1.c **** 
 248:.\Generated_Source\PSoC5/LCD_SegStatic_1.c ****     /* The component is started so set the state appropriately */
 249:.\Generated_Source\PSoC5/LCD_SegStatic_1.c ****     LCD_SegStatic_1_enableState = 1u;
 250:.\Generated_Source\PSoC5/LCD_SegStatic_1.c **** 
 251:.\Generated_Source\PSoC5/LCD_SegStatic_1.c ****     return(status);
 252:.\Generated_Source\PSoC5/LCD_SegStatic_1.c **** }
 253:.\Generated_Source\PSoC5/LCD_SegStatic_1.c **** 
 254:.\Generated_Source\PSoC5/LCD_SegStatic_1.c **** 
 255:.\Generated_Source\PSoC5/LCD_SegStatic_1.c **** /*******************************************************************************
 256:.\Generated_Source\PSoC5/LCD_SegStatic_1.c **** * Function Name: LCD_SegStatic_1_DmaConfigure
 257:.\Generated_Source\PSoC5/LCD_SegStatic_1.c **** ********************************************************************************
 258:.\Generated_Source\PSoC5/LCD_SegStatic_1.c **** *
 259:.\Generated_Source\PSoC5/LCD_SegStatic_1.c **** * Summary:
 260:.\Generated_Source\PSoC5/LCD_SegStatic_1.c **** *  Configures DMA to transfer data from the frame buffer to port alliased
ARM GAS  C:\Users\addis\AppData\Local\Temp\ccUS9kEI.s 			page 6


 261:.\Generated_Source\PSoC5/LCD_SegStatic_1.c **** *  memory.
 262:.\Generated_Source\PSoC5/LCD_SegStatic_1.c **** *
 263:.\Generated_Source\PSoC5/LCD_SegStatic_1.c **** * Parameters:
 264:.\Generated_Source\PSoC5/LCD_SegStatic_1.c **** *  None.
 265:.\Generated_Source\PSoC5/LCD_SegStatic_1.c **** *
 266:.\Generated_Source\PSoC5/LCD_SegStatic_1.c **** * Return:
 267:.\Generated_Source\PSoC5/LCD_SegStatic_1.c **** *  Status one of standard status for PSoC3 Component
 268:.\Generated_Source\PSoC5/LCD_SegStatic_1.c **** *      CYRET_SUCCESS - Function completed successfully.
 269:.\Generated_Source\PSoC5/LCD_SegStatic_1.c **** *      CYRET_LOCKED - The object was locked, already in use. Some of TDs or
 270:.\Generated_Source\PSoC5/LCD_SegStatic_1.c **** *                     a channel already in use.
 271:.\Generated_Source\PSoC5/LCD_SegStatic_1.c **** *
 272:.\Generated_Source\PSoC5/LCD_SegStatic_1.c **** * Global variables:
 273:.\Generated_Source\PSoC5/LCD_SegStatic_1.c **** * LCD_SegStatic_1_lcdTd[] - used to store a set of allocated TD IDs that are
 274:.\Generated_Source\PSoC5/LCD_SegStatic_1.c **** *  used by this component.
 275:.\Generated_Source\PSoC5/LCD_SegStatic_1.c **** *
 276:.\Generated_Source\PSoC5/LCD_SegStatic_1.c **** *  LCD_SegStatic_1_lcdChannel - stores a DMA Channel allocated for an LCD usage.
 277:.\Generated_Source\PSoC5/LCD_SegStatic_1.c **** *
 278:.\Generated_Source\PSoC5/LCD_SegStatic_1.c **** *  LCD_SegStatic_1_termOut - used as a parameter for LCD DMA configuration API
 279:.\Generated_Source\PSoC5/LCD_SegStatic_1.c **** *  to select proper TermOut signal that was previously calculated.
 280:.\Generated_Source\PSoC5/LCD_SegStatic_1.c **** *
 281:.\Generated_Source\PSoC5/LCD_SegStatic_1.c **** *  LCD_SegStatic_1LcdPort_DMA_TD_PROTO_BLOCK[] - used as a parameter for DMA
 282:.\Generated_Source\PSoC5/LCD_SegStatic_1.c **** *  configuration API.
 283:.\Generated_Source\PSoC5/LCD_SegStatic_1.c **** *
 284:.\Generated_Source\PSoC5/LCD_SegStatic_1.c **** * Reentrant:
 285:.\Generated_Source\PSoC5/LCD_SegStatic_1.c **** *  No.
 286:.\Generated_Source\PSoC5/LCD_SegStatic_1.c **** *
 287:.\Generated_Source\PSoC5/LCD_SegStatic_1.c **** *******************************************************************************/
 288:.\Generated_Source\PSoC5/LCD_SegStatic_1.c **** static uint8 LCD_SegStatic_1_DmaConfigure(void) CYREENTRANT
 289:.\Generated_Source\PSoC5/LCD_SegStatic_1.c **** {
  26              		.loc 1 289 0
  27              		.cfi_startproc
  28              		@ args = 0, pretend = 0, frame = 0
  29              		@ frame_needed = 0, uses_anonymous_args = 0
  30 0000 2DE9F843 		push	{r3, r4, r5, r6, r7, r8, r9, lr}
  31              		.cfi_def_cfa_offset 32
  32              		.cfi_offset 3, -32
  33              		.cfi_offset 4, -28
  34              		.cfi_offset 5, -24
  35              		.cfi_offset 6, -20
  36              		.cfi_offset 7, -16
  37              		.cfi_offset 8, -12
  38              		.cfi_offset 9, -8
  39              		.cfi_offset 14, -4
  40              	.LVL0:
 290:.\Generated_Source\PSoC5/LCD_SegStatic_1.c ****     uint8 status = CYRET_LOCKED;
 291:.\Generated_Source\PSoC5/LCD_SegStatic_1.c ****     uint8 i;
 292:.\Generated_Source\PSoC5/LCD_SegStatic_1.c ****     uint8 j;
 293:.\Generated_Source\PSoC5/LCD_SegStatic_1.c ****     uint8 errorCnt = 0u;
 294:.\Generated_Source\PSoC5/LCD_SegStatic_1.c ****     uint32 srcAddr;
 295:.\Generated_Source\PSoC5/LCD_SegStatic_1.c ****     uint32 dstAddr;
 296:.\Generated_Source\PSoC5/LCD_SegStatic_1.c ****     uint8 comTdCount;
 297:.\Generated_Source\PSoC5/LCD_SegStatic_1.c ****     /* DMA_PROTO_TD_DEF */
 298:.\Generated_Source\PSoC5/LCD_SegStatic_1.c ****     static const struct LCD_SegStatic_1_DMA_TD_PROTO_ENTRY CYCODE LCD_SegStatic_1_StSegLcdPort_DMA_
 299:.\Generated_Source\PSoC5/LCD_SegStatic_1.c ****     {
 300:.\Generated_Source\PSoC5/LCD_SegStatic_1.c ****         {0u, 1u},
 301:.\Generated_Source\PSoC5/LCD_SegStatic_1.c ****     };
 302:.\Generated_Source\PSoC5/LCD_SegStatic_1.c **** 
ARM GAS  C:\Users\addis\AppData\Local\Temp\ccUS9kEI.s 			page 7


 303:.\Generated_Source\PSoC5/LCD_SegStatic_1.c ****     /* LCD_SegStatic_1_termOut selects signal which triggers
 304:.\Generated_Source\PSoC5/LCD_SegStatic_1.c ****     * LCD every frame interrupt.
 305:.\Generated_Source\PSoC5/LCD_SegStatic_1.c ****     */
 306:.\Generated_Source\PSoC5/LCD_SegStatic_1.c ****     static uint8 LCD_SegStatic_1_termOut = (LCD_SegStatic_1_Lcd_Dma__TERMOUT0_EN ? TD_TERMOUT0_EN :
 307:.\Generated_Source\PSoC5/LCD_SegStatic_1.c ****                                  (LCD_SegStatic_1_Lcd_Dma__TERMOUT1_EN ? TD_TERMOUT1_EN : 0u);
 308:.\Generated_Source\PSoC5/LCD_SegStatic_1.c **** 
 309:.\Generated_Source\PSoC5/LCD_SegStatic_1.c ****     /* Get addressed of source and destination for DMA transactions */
 310:.\Generated_Source\PSoC5/LCD_SegStatic_1.c ****     srcAddr = LCD_SegStatic_1_DMA_ADDRESS_MASK & ((uint32) LCD_SegStatic_1_buffer);
  41              		.loc 1 310 0
  42 0004 414F     		ldr	r7, .L19
  43              	.LVL1:
 311:.\Generated_Source\PSoC5/LCD_SegStatic_1.c ****     dstAddr = LCD_SegStatic_1_DMA_ADDRESS_MASK & LCD_SegStatic_1_ALIASED_AREA_PTR;
 312:.\Generated_Source\PSoC5/LCD_SegStatic_1.c **** 
 313:.\Generated_Source\PSoC5/LCD_SegStatic_1.c ****     /* Allocate DMA channel */
 314:.\Generated_Source\PSoC5/LCD_SegStatic_1.c ****     LCD_SegStatic_1_lcdChannel = LCD_SegStatic_1_Lcd_Dma_DmaInitialize(0u, 0u, HI16(srcAddr), HI16(
  44              		.loc 1 314 0
  45 0006 0020     		movs	r0, #0
  46 0008 0146     		mov	r1, r0
  47 000a 3A0C     		lsrs	r2, r7, #16
  48 000c 4FF48043 		mov	r3, #16384
  49 0010 FFF7FEFF 		bl	LCD_SegStatic_1_Lcd_Dma_DmaInitialize
  50              	.LVL2:
  51 0014 87F82000 		strb	r0, [r7, #32]
 315:.\Generated_Source\PSoC5/LCD_SegStatic_1.c **** 
 316:.\Generated_Source\PSoC5/LCD_SegStatic_1.c ****     /* Check if the channel is valid */
 317:.\Generated_Source\PSoC5/LCD_SegStatic_1.c ****     if(LCD_SegStatic_1_lcdChannel == DMA_INVALID_CHANNEL)
  52              		.loc 1 317 0
  53 0018 FF28     		cmp	r0, #255
  54 001a 01D0     		beq	.L14
 293:.\Generated_Source\PSoC5/LCD_SegStatic_1.c ****     uint32 srcAddr;
  55              		.loc 1 293 0
  56 001c 0026     		movs	r6, #0
  57 001e 00E0     		b	.L2
  58              	.L14:
 318:.\Generated_Source\PSoC5/LCD_SegStatic_1.c ****     {
 319:.\Generated_Source\PSoC5/LCD_SegStatic_1.c ****         errorCnt++;
  59              		.loc 1 319 0
  60 0020 0126     		movs	r6, #1
  61              	.L2:
  62 0022 4FF00008 		mov	r8, #0
  63 0026 15E0     		b	.L3
  64              	.LVL3:
  65              	.L5:
 320:.\Generated_Source\PSoC5/LCD_SegStatic_1.c ****     }
 321:.\Generated_Source\PSoC5/LCD_SegStatic_1.c **** 
 322:.\Generated_Source\PSoC5/LCD_SegStatic_1.c ****     /* Allocate required number of DMA TDs */
 323:.\Generated_Source\PSoC5/LCD_SegStatic_1.c ****     for(j = 0u; j < LCD_SegStatic_1_COMM_NUM; j++)
 324:.\Generated_Source\PSoC5/LCD_SegStatic_1.c ****     {
 325:.\Generated_Source\PSoC5/LCD_SegStatic_1.c ****         for(i = 0u; i < LCD_SegStatic_1_LCD_TD_SIZE; i++)
 326:.\Generated_Source\PSoC5/LCD_SegStatic_1.c ****         {
 327:.\Generated_Source\PSoC5/LCD_SegStatic_1.c ****             LCD_SegStatic_1_lcdTd[(j * LCD_SegStatic_1_LCD_TD_SIZE) + i] = CyDmaTdAllocate();
  66              		.loc 1 327 0
  67 0028 08EB0405 		add	r5, r8, r4
  68 002c FFF7FEFF 		bl	CyDmaTdAllocate
  69              	.LVL4:
  70 0030 364B     		ldr	r3, .L19
  71 0032 1D44     		add	r5, r5, r3
ARM GAS  C:\Users\addis\AppData\Local\Temp\ccUS9kEI.s 			page 8


  72 0034 85F82400 		strb	r0, [r5, #36]
 328:.\Generated_Source\PSoC5/LCD_SegStatic_1.c ****             if(LCD_SegStatic_1_lcdTd[(j * LCD_SegStatic_1_LCD_TD_SIZE) + i] == DMA_INVALID_TD)
  73              		.loc 1 328 0
  74 0038 FF28     		cmp	r0, #255
  75 003a 01D1     		bne	.L4
 329:.\Generated_Source\PSoC5/LCD_SegStatic_1.c ****             {
 330:.\Generated_Source\PSoC5/LCD_SegStatic_1.c ****                 errorCnt++;
  76              		.loc 1 330 0
  77 003c 0136     		adds	r6, r6, #1
  78              	.LVL5:
  79 003e F6B2     		uxtb	r6, r6
  80              	.LVL6:
  81              	.L4:
 325:.\Generated_Source\PSoC5/LCD_SegStatic_1.c ****         {
  82              		.loc 1 325 0 discriminator 2
  83 0040 0134     		adds	r4, r4, #1
  84              	.LVL7:
  85 0042 E4B2     		uxtb	r4, r4
  86              	.LVL8:
  87 0044 00E0     		b	.L6
  88              	.LVL9:
  89              	.L15:
  90 0046 0024     		movs	r4, #0
  91              	.L6:
  92              	.LVL10:
 325:.\Generated_Source\PSoC5/LCD_SegStatic_1.c ****         {
  93              		.loc 1 325 0 is_stmt 0 discriminator 1
  94 0048 002C     		cmp	r4, #0
  95 004a EDD0     		beq	.L5
 323:.\Generated_Source\PSoC5/LCD_SegStatic_1.c ****     {
  96              		.loc 1 323 0 is_stmt 1 discriminator 2
  97 004c 08F10108 		add	r8, r8, #1
  98              	.LVL11:
  99 0050 5FFA88F8 		uxtb	r8, r8
 100              	.LVL12:
 101              	.L3:
 323:.\Generated_Source\PSoC5/LCD_SegStatic_1.c ****     {
 102              		.loc 1 323 0 is_stmt 0 discriminator 1
 103 0054 B8F1010F 		cmp	r8, #1
 104 0058 F5D9     		bls	.L15
 105 005a 0025     		movs	r5, #0
 106 005c 41E0     		b	.L7
 107              	.LVL13:
 108              	.L11:
 331:.\Generated_Source\PSoC5/LCD_SegStatic_1.c ****             }
 332:.\Generated_Source\PSoC5/LCD_SegStatic_1.c ****         }
 333:.\Generated_Source\PSoC5/LCD_SegStatic_1.c ****     }
 334:.\Generated_Source\PSoC5/LCD_SegStatic_1.c **** 
 335:.\Generated_Source\PSoC5/LCD_SegStatic_1.c ****     /* comTdCount stores the number of TDs allocated for this configuration */
 336:.\Generated_Source\PSoC5/LCD_SegStatic_1.c ****     comTdCount = (LCD_SegStatic_1_COMM_NUM * LCD_SegStatic_1_LCD_TD_SIZE);
 337:.\Generated_Source\PSoC5/LCD_SegStatic_1.c **** 
 338:.\Generated_Source\PSoC5/LCD_SegStatic_1.c ****     /* TD configuration loop */
 339:.\Generated_Source\PSoC5/LCD_SegStatic_1.c ****     for(j = 0u; j < LCD_SegStatic_1_COMM_NUM; j++)
 340:.\Generated_Source\PSoC5/LCD_SegStatic_1.c ****     {
 341:.\Generated_Source\PSoC5/LCD_SegStatic_1.c ****         for(i = 0u; i < LCD_SegStatic_1_LCD_TD_SIZE; i++)
 342:.\Generated_Source\PSoC5/LCD_SegStatic_1.c ****         {
 343:.\Generated_Source\PSoC5/LCD_SegStatic_1.c ****             /* The last TD need to point to TD[0] */
ARM GAS  C:\Users\addis\AppData\Local\Temp\ccUS9kEI.s 			page 9


 344:.\Generated_Source\PSoC5/LCD_SegStatic_1.c ****             if(((j * LCD_SegStatic_1_LCD_TD_SIZE) + i) == (comTdCount - 1u))
 109              		.loc 1 344 0 is_stmt 1
 110 005e A146     		mov	r9, r4
 111 0060 05EB0408 		add	r8, r5, r4
 112 0064 B8F1010F 		cmp	r8, #1
 113 0068 0BD1     		bne	.L8
 345:.\Generated_Source\PSoC5/LCD_SegStatic_1.c ****             {
 346:.\Generated_Source\PSoC5/LCD_SegStatic_1.c ****                 (void) CyDmaTdSetConfiguration(LCD_SegStatic_1_lcdTd[(j * LCD_SegStatic_1_LCD_TD_SI
 114              		.loc 1 346 0
 115 006a 284B     		ldr	r3, .L19
 116 006c 03EB0802 		add	r2, r3, r8
 117 0070 92F82400 		ldrb	r0, [r2, #36]	@ zero_extendqisi2
 118 0074 0121     		movs	r1, #1
 119 0076 93F82420 		ldrb	r2, [r3, #36]	@ zero_extendqisi2
 120 007a 0723     		movs	r3, #7
 121 007c FFF7FEFF 		bl	CyDmaTdSetConfiguration
 122              	.LVL14:
 123 0080 17E0     		b	.L9
 124              	.L8:
 347:.\Generated_Source\PSoC5/LCD_SegStatic_1.c ****                                         (uint16) LCD_SegStatic_1_StSegLcdPort_DMA_TD_PROTO_BLOCK[i]
 348:.\Generated_Source\PSoC5/LCD_SegStatic_1.c ****                                         LCD_SegStatic_1_lcdTd[0u],
 349:.\Generated_Source\PSoC5/LCD_SegStatic_1.c ****                                         TD_INC_DST_ADR | TD_INC_SRC_ADR | LCD_SegStatic_1_termOut);
 350:.\Generated_Source\PSoC5/LCD_SegStatic_1.c ****             }
 351:.\Generated_Source\PSoC5/LCD_SegStatic_1.c ****             /* Last TD in the row should generate an interrupt signal */
 352:.\Generated_Source\PSoC5/LCD_SegStatic_1.c ****             else if(i == (LCD_SegStatic_1_LCD_TD_SIZE - 1u))
 125              		.loc 1 352 0
 126 0082 5CB9     		cbnz	r4, .L10
 353:.\Generated_Source\PSoC5/LCD_SegStatic_1.c ****             {
 354:.\Generated_Source\PSoC5/LCD_SegStatic_1.c ****                 (void) CyDmaTdSetConfiguration(LCD_SegStatic_1_lcdTd[(j * LCD_SegStatic_1_LCD_TD_SI
 127              		.loc 1 354 0
 128 0084 214B     		ldr	r3, .L19
 129 0086 03EB0802 		add	r2, r3, r8
 130 008a 92F82400 		ldrb	r0, [r2, #36]	@ zero_extendqisi2
 131 008e 0121     		movs	r1, #1
 132 0090 92F82520 		ldrb	r2, [r2, #37]	@ zero_extendqisi2
 133 0094 0723     		movs	r3, #7
 134 0096 FFF7FEFF 		bl	CyDmaTdSetConfiguration
 135              	.LVL15:
 136 009a 0AE0     		b	.L9
 137              	.L10:
 355:.\Generated_Source\PSoC5/LCD_SegStatic_1.c ****                                         (uint16) LCD_SegStatic_1_StSegLcdPort_DMA_TD_PROTO_BLOCK[i]
 356:.\Generated_Source\PSoC5/LCD_SegStatic_1.c ****                                         LCD_SegStatic_1_lcdTd[(j * LCD_SegStatic_1_LCD_TD_SIZE) + i
 357:.\Generated_Source\PSoC5/LCD_SegStatic_1.c ****                                         TD_INC_DST_ADR | TD_INC_SRC_ADR | LCD_SegStatic_1_termOut);
 358:.\Generated_Source\PSoC5/LCD_SegStatic_1.c ****             }
 359:.\Generated_Source\PSoC5/LCD_SegStatic_1.c ****             else
 360:.\Generated_Source\PSoC5/LCD_SegStatic_1.c ****             {
 361:.\Generated_Source\PSoC5/LCD_SegStatic_1.c ****                 /* If this is not the last TD in the row it should automatically
 362:.\Generated_Source\PSoC5/LCD_SegStatic_1.c ****                 * next standing TDs.
 363:.\Generated_Source\PSoC5/LCD_SegStatic_1.c ****                 */
 364:.\Generated_Source\PSoC5/LCD_SegStatic_1.c ****                (void) CyDmaTdSetConfiguration(LCD_SegStatic_1_lcdTd[(j * LCD_SegStatic_1_LCD_TD_SIZ
 138              		.loc 1 364 0
 139 009c 1B4B     		ldr	r3, .L19
 140 009e 03EB0802 		add	r2, r3, r8
 141 00a2 92F82400 		ldrb	r0, [r2, #36]	@ zero_extendqisi2
 142 00a6 0121     		movs	r1, #1
 143 00a8 92F82520 		ldrb	r2, [r2, #37]	@ zero_extendqisi2
 144 00ac 2323     		movs	r3, #35
ARM GAS  C:\Users\addis\AppData\Local\Temp\ccUS9kEI.s 			page 10


 145 00ae FFF7FEFF 		bl	CyDmaTdSetConfiguration
 146              	.LVL16:
 147              	.L9:
 365:.\Generated_Source\PSoC5/LCD_SegStatic_1.c ****                                         (uint16) LCD_SegStatic_1_StSegLcdPort_DMA_TD_PROTO_BLOCK[i]
 366:.\Generated_Source\PSoC5/LCD_SegStatic_1.c ****                                         LCD_SegStatic_1_lcdTd[(j * LCD_SegStatic_1_LCD_TD_SIZE) + i
 367:.\Generated_Source\PSoC5/LCD_SegStatic_1.c ****                                         TD_INC_DST_ADR | TD_INC_SRC_ADR | TD_AUTO_EXEC_NEXT);
 368:.\Generated_Source\PSoC5/LCD_SegStatic_1.c ****             }
 369:.\Generated_Source\PSoC5/LCD_SegStatic_1.c **** 
 370:.\Generated_Source\PSoC5/LCD_SegStatic_1.c ****             /* Set the low 16 bits of the source and destination addresses
 371:.\Generated_Source\PSoC5/LCD_SegStatic_1.c ****             * for TDs.
 372:.\Generated_Source\PSoC5/LCD_SegStatic_1.c ****             */
 373:.\Generated_Source\PSoC5/LCD_SegStatic_1.c ****             (void) CyDmaTdSetAddress(LCD_SegStatic_1_lcdTd[(j * LCD_SegStatic_1_LCD_TD_SIZE) + i],
 148              		.loc 1 373 0 discriminator 2
 149 00b2 164B     		ldr	r3, .L19
 150 00b4 9844     		add	r8, r8, r3
 374:.\Generated_Source\PSoC5/LCD_SegStatic_1.c ****                               LO16(srcAddr) + (((uint16) j) * LCD_SegStatic_1_ROW_LENGTH) +
 151              		.loc 1 374 0 discriminator 2
 152 00b6 B9B2     		uxth	r1, r7
 373:.\Generated_Source\PSoC5/LCD_SegStatic_1.c ****                               LO16(srcAddr) + (((uint16) j) * LCD_SegStatic_1_ROW_LENGTH) +
 153              		.loc 1 373 0 discriminator 2
 154 00b8 154B     		ldr	r3, .L19+4
 155 00ba 13F81920 		ldrb	r2, [r3, r9, lsl #1]	@ zero_extendqisi2
 156 00be 01EB0511 		add	r1, r1, r5, lsl #4
 157 00c2 1144     		add	r1, r1, r2
 158 00c4 98F82400 		ldrb	r0, [r8, #36]	@ zero_extendqisi2
 159 00c8 89B2     		uxth	r1, r1
 160 00ca 02F5A142 		add	r2, r2, #20608
 161 00ce FFF7FEFF 		bl	CyDmaTdSetAddress
 162              	.LVL17:
 341:.\Generated_Source\PSoC5/LCD_SegStatic_1.c ****         {
 163              		.loc 1 341 0 discriminator 2
 164 00d2 0134     		adds	r4, r4, #1
 165              	.LVL18:
 166 00d4 E4B2     		uxtb	r4, r4
 167              	.LVL19:
 168 00d6 00E0     		b	.L12
 169              	.LVL20:
 170              	.L16:
 171 00d8 0024     		movs	r4, #0
 172              	.L12:
 173              	.LVL21:
 341:.\Generated_Source\PSoC5/LCD_SegStatic_1.c ****         {
 174              		.loc 1 341 0 is_stmt 0 discriminator 1
 175 00da 002C     		cmp	r4, #0
 176 00dc BFD0     		beq	.L11
 339:.\Generated_Source\PSoC5/LCD_SegStatic_1.c ****     {
 177              		.loc 1 339 0 is_stmt 1 discriminator 2
 178 00de 0135     		adds	r5, r5, #1
 179              	.LVL22:
 180 00e0 EDB2     		uxtb	r5, r5
 181              	.LVL23:
 182              	.L7:
 339:.\Generated_Source\PSoC5/LCD_SegStatic_1.c ****     {
 183              		.loc 1 339 0 is_stmt 0 discriminator 1
 184 00e2 012D     		cmp	r5, #1
 185 00e4 F8D9     		bls	.L16
 375:.\Generated_Source\PSoC5/LCD_SegStatic_1.c ****                               (uint16) LCD_SegStatic_1_StSegLcdPort_DMA_TD_PROTO_BLOCK[i].offset,
ARM GAS  C:\Users\addis\AppData\Local\Temp\ccUS9kEI.s 			page 11


 376:.\Generated_Source\PSoC5/LCD_SegStatic_1.c ****                               LO16(dstAddr) + LCD_SegStatic_1_StSegLcdPort_DMA_TD_PROTO_BLOCK[i].of
 377:.\Generated_Source\PSoC5/LCD_SegStatic_1.c ****         }
 378:.\Generated_Source\PSoC5/LCD_SegStatic_1.c ****     }
 379:.\Generated_Source\PSoC5/LCD_SegStatic_1.c **** 
 380:.\Generated_Source\PSoC5/LCD_SegStatic_1.c ****     /* If there was no errors during DMA configuration then enable the channel. */
 381:.\Generated_Source\PSoC5/LCD_SegStatic_1.c ****     if(errorCnt == 0u)
 186              		.loc 1 381 0 is_stmt 1
 187 00e6 76B9     		cbnz	r6, .L17
 382:.\Generated_Source\PSoC5/LCD_SegStatic_1.c ****     {
 383:.\Generated_Source\PSoC5/LCD_SegStatic_1.c ****         (void) CyDmaChSetInitialTd(LCD_SegStatic_1_lcdChannel, LCD_SegStatic_1_lcdTd[0u]);
 188              		.loc 1 383 0
 189 00e8 084C     		ldr	r4, .L19
 190 00ea 94F82000 		ldrb	r0, [r4, #32]	@ zero_extendqisi2
 191 00ee 94F82410 		ldrb	r1, [r4, #36]	@ zero_extendqisi2
 192 00f2 FFF7FEFF 		bl	CyDmaChSetInitialTd
 193              	.LVL24:
 384:.\Generated_Source\PSoC5/LCD_SegStatic_1.c ****         (void) CyDmaChEnable(LCD_SegStatic_1_lcdChannel, 1u);
 194              		.loc 1 384 0
 195 00f6 94F82000 		ldrb	r0, [r4, #32]	@ zero_extendqisi2
 196 00fa 0121     		movs	r1, #1
 197 00fc FFF7FEFF 		bl	CyDmaChEnable
 198              	.LVL25:
 385:.\Generated_Source\PSoC5/LCD_SegStatic_1.c ****         status = CYRET_SUCCESS;
 199              		.loc 1 385 0
 200 0100 0020     		movs	r0, #0
 201 0102 BDE8F883 		pop	{r3, r4, r5, r6, r7, r8, r9, pc}
 202              	.LVL26:
 203              	.L17:
 290:.\Generated_Source\PSoC5/LCD_SegStatic_1.c ****     uint8 i;
 204              		.loc 1 290 0
 205 0106 0420     		movs	r0, #4
 206              	.LVL27:
 386:.\Generated_Source\PSoC5/LCD_SegStatic_1.c ****     }
 387:.\Generated_Source\PSoC5/LCD_SegStatic_1.c **** 
 388:.\Generated_Source\PSoC5/LCD_SegStatic_1.c ****     return(status);
 389:.\Generated_Source\PSoC5/LCD_SegStatic_1.c **** }
 207              		.loc 1 389 0
 208 0108 BDE8F883 		pop	{r3, r4, r5, r6, r7, r8, r9, pc}
 209              	.LVL28:
 210              	.L20:
 211              		.align	2
 212              	.L19:
 213 010c 00000000 		.word	.LANCHOR0
 214 0110 00000000 		.word	.LANCHOR1
 215              		.cfi_endproc
 216              	.LFE2:
 217              		.size	LCD_SegStatic_1_DmaConfigure, .-LCD_SegStatic_1_DmaConfigure
 218              		.section	.text.LCD_SegStatic_1_DmaDispose,"ax",%progbits
 219              		.align	2
 220              		.thumb
 221              		.thumb_func
 222              		.type	LCD_SegStatic_1_DmaDispose, %function
 223              	LCD_SegStatic_1_DmaDispose:
 224              	.LFB3:
 390:.\Generated_Source\PSoC5/LCD_SegStatic_1.c **** 
 391:.\Generated_Source\PSoC5/LCD_SegStatic_1.c **** 
 392:.\Generated_Source\PSoC5/LCD_SegStatic_1.c **** /*******************************************************************************
ARM GAS  C:\Users\addis\AppData\Local\Temp\ccUS9kEI.s 			page 12


 393:.\Generated_Source\PSoC5/LCD_SegStatic_1.c **** * Function Name: LCD_SegStatic_1_DmaDispose
 394:.\Generated_Source\PSoC5/LCD_SegStatic_1.c **** ********************************************************************************
 395:.\Generated_Source\PSoC5/LCD_SegStatic_1.c **** *
 396:.\Generated_Source\PSoC5/LCD_SegStatic_1.c **** * Summary:
 397:.\Generated_Source\PSoC5/LCD_SegStatic_1.c **** *  Releases transaction descriptors and DMA channel previously used by the
 398:.\Generated_Source\PSoC5/LCD_SegStatic_1.c **** *  component.
 399:.\Generated_Source\PSoC5/LCD_SegStatic_1.c **** *
 400:.\Generated_Source\PSoC5/LCD_SegStatic_1.c **** * Parameters:
 401:.\Generated_Source\PSoC5/LCD_SegStatic_1.c **** *  None.
 402:.\Generated_Source\PSoC5/LCD_SegStatic_1.c **** *
 403:.\Generated_Source\PSoC5/LCD_SegStatic_1.c **** * Return:
 404:.\Generated_Source\PSoC5/LCD_SegStatic_1.c **** *  None.
 405:.\Generated_Source\PSoC5/LCD_SegStatic_1.c **** *
 406:.\Generated_Source\PSoC5/LCD_SegStatic_1.c **** * Global variables:
 407:.\Generated_Source\PSoC5/LCD_SegStatic_1.c **** *  LCD_SegStatic_1_lcdTd[] - used  store a set of allocated TD IDs that are
 408:.\Generated_Source\PSoC5/LCD_SegStatic_1.c **** *  used by this component which will be released by this function.
 409:.\Generated_Source\PSoC5/LCD_SegStatic_1.c **** *
 410:.\Generated_Source\PSoC5/LCD_SegStatic_1.c **** *  LCD_SegStatic_1_lcdChannel - holds the channel number used by the LCD
 411:.\Generated_Source\PSoC5/LCD_SegStatic_1.c **** *  component that will be released by this function.
 412:.\Generated_Source\PSoC5/LCD_SegStatic_1.c **** *
 413:.\Generated_Source\PSoC5/LCD_SegStatic_1.c **** * Reentrant:
 414:.\Generated_Source\PSoC5/LCD_SegStatic_1.c **** *  No.
 415:.\Generated_Source\PSoC5/LCD_SegStatic_1.c **** *
 416:.\Generated_Source\PSoC5/LCD_SegStatic_1.c **** *******************************************************************************/
 417:.\Generated_Source\PSoC5/LCD_SegStatic_1.c **** static void LCD_SegStatic_1_DmaDispose(void) CYREENTRANT
 418:.\Generated_Source\PSoC5/LCD_SegStatic_1.c **** {
 225              		.loc 1 418 0
 226              		.cfi_startproc
 227              		@ args = 0, pretend = 0, frame = 0
 228              		@ frame_needed = 0, uses_anonymous_args = 0
 229 0000 10B5     		push	{r4, lr}
 230              		.cfi_def_cfa_offset 8
 231              		.cfi_offset 4, -8
 232              		.cfi_offset 14, -4
 419:.\Generated_Source\PSoC5/LCD_SegStatic_1.c ****     uint8 i;
 420:.\Generated_Source\PSoC5/LCD_SegStatic_1.c **** 
 421:.\Generated_Source\PSoC5/LCD_SegStatic_1.c ****     /* Release DMA handle, this will disable the LCD channel */
 422:.\Generated_Source\PSoC5/LCD_SegStatic_1.c ****     LCD_SegStatic_1_Lcd_Dma_DmaRelease();
 233              		.loc 1 422 0
 234 0002 FFF7FEFF 		bl	LCD_SegStatic_1_Lcd_Dma_DmaRelease
 235              	.LVL29:
 423:.\Generated_Source\PSoC5/LCD_SegStatic_1.c **** 
 424:.\Generated_Source\PSoC5/LCD_SegStatic_1.c ****     /* Free unused channel */
 425:.\Generated_Source\PSoC5/LCD_SegStatic_1.c ****     (void) CyDmaChFree(LCD_SegStatic_1_lcdChannel);
 236              		.loc 1 425 0
 237 0006 094B     		ldr	r3, .L25
 238 0008 93F82000 		ldrb	r0, [r3, #32]	@ zero_extendqisi2
 239 000c FFF7FEFF 		bl	CyDmaChFree
 240              	.LVL30:
 426:.\Generated_Source\PSoC5/LCD_SegStatic_1.c **** 
 427:.\Generated_Source\PSoC5/LCD_SegStatic_1.c ****     /* Release all allocated TDs */
 428:.\Generated_Source\PSoC5/LCD_SegStatic_1.c ****     for(i = 0u; i < (LCD_SegStatic_1_LCD_TD_SIZE * LCD_SegStatic_1_COMM_NUM); i++)
 241              		.loc 1 428 0
 242 0010 0024     		movs	r4, #0
 243 0012 07E0     		b	.L22
 244              	.LVL31:
 245              	.L23:
ARM GAS  C:\Users\addis\AppData\Local\Temp\ccUS9kEI.s 			page 13


 429:.\Generated_Source\PSoC5/LCD_SegStatic_1.c ****     {
 430:.\Generated_Source\PSoC5/LCD_SegStatic_1.c ****         CyDmaTdFree(LCD_SegStatic_1_lcdTd[i]);
 246              		.loc 1 430 0 discriminator 3
 247 0014 054B     		ldr	r3, .L25
 248 0016 2344     		add	r3, r3, r4
 249 0018 93F82400 		ldrb	r0, [r3, #36]	@ zero_extendqisi2
 250 001c FFF7FEFF 		bl	CyDmaTdFree
 251              	.LVL32:
 428:.\Generated_Source\PSoC5/LCD_SegStatic_1.c ****     {
 252              		.loc 1 428 0 discriminator 3
 253 0020 0134     		adds	r4, r4, #1
 254              	.LVL33:
 255 0022 E4B2     		uxtb	r4, r4
 256              	.LVL34:
 257              	.L22:
 428:.\Generated_Source\PSoC5/LCD_SegStatic_1.c ****     {
 258              		.loc 1 428 0 is_stmt 0 discriminator 1
 259 0024 012C     		cmp	r4, #1
 260 0026 F5D9     		bls	.L23
 431:.\Generated_Source\PSoC5/LCD_SegStatic_1.c ****     }
 432:.\Generated_Source\PSoC5/LCD_SegStatic_1.c **** }
 261              		.loc 1 432 0 is_stmt 1
 262 0028 10BD     		pop	{r4, pc}
 263              	.LVL35:
 264              	.L26:
 265 002a 00BF     		.align	2
 266              	.L25:
 267 002c 00000000 		.word	.LANCHOR0
 268              		.cfi_endproc
 269              	.LFE3:
 270              		.size	LCD_SegStatic_1_DmaDispose, .-LCD_SegStatic_1_DmaDispose
 271              		.section	.text.LCD_SegStatic_1_Enable,"ax",%progbits
 272              		.align	2
 273              		.global	LCD_SegStatic_1_Enable
 274              		.thumb
 275              		.thumb_func
 276              		.type	LCD_SegStatic_1_Enable, %function
 277              	LCD_SegStatic_1_Enable:
 278              	.LFB1:
 239:.\Generated_Source\PSoC5/LCD_SegStatic_1.c ****     uint8 status;
 279              		.loc 1 239 0
 280              		.cfi_startproc
 281              		@ args = 0, pretend = 0, frame = 0
 282              		@ frame_needed = 0, uses_anonymous_args = 0
 283 0000 10B5     		push	{r4, lr}
 284              		.cfi_def_cfa_offset 8
 285              		.cfi_offset 4, -8
 286              		.cfi_offset 14, -4
 243:.\Generated_Source\PSoC5/LCD_SegStatic_1.c **** 
 287              		.loc 1 243 0
 288 0002 FFF7FEFF 		bl	LCD_SegStatic_1_DmaConfigure
 289              	.LVL36:
 290 0006 0446     		mov	r4, r0
 291              	.LVL37:
 246:.\Generated_Source\PSoC5/LCD_SegStatic_1.c **** 
 292              		.loc 1 246 0
 293 0008 FFF7FEFF 		bl	LCD_SegStatic_1_InClock_Start
ARM GAS  C:\Users\addis\AppData\Local\Temp\ccUS9kEI.s 			page 14


 294              	.LVL38:
 249:.\Generated_Source\PSoC5/LCD_SegStatic_1.c **** 
 295              		.loc 1 249 0
 296 000c 0122     		movs	r2, #1
 297 000e 024B     		ldr	r3, .L29
 298 0010 83F82620 		strb	r2, [r3, #38]
 252:.\Generated_Source\PSoC5/LCD_SegStatic_1.c **** 
 299              		.loc 1 252 0
 300 0014 2046     		mov	r0, r4
 301 0016 10BD     		pop	{r4, pc}
 302              	.LVL39:
 303              	.L30:
 304              		.align	2
 305              	.L29:
 306 0018 00000000 		.word	.LANCHOR0
 307              		.cfi_endproc
 308              	.LFE1:
 309              		.size	LCD_SegStatic_1_Enable, .-LCD_SegStatic_1_Enable
 310              		.section	.text.LCD_SegStatic_1_Stop,"ax",%progbits
 311              		.align	2
 312              		.global	LCD_SegStatic_1_Stop
 313              		.thumb
 314              		.thumb_func
 315              		.type	LCD_SegStatic_1_Stop, %function
 316              	LCD_SegStatic_1_Stop:
 317              	.LFB5:
 433:.\Generated_Source\PSoC5/LCD_SegStatic_1.c **** 
 434:.\Generated_Source\PSoC5/LCD_SegStatic_1.c **** 
 435:.\Generated_Source\PSoC5/LCD_SegStatic_1.c **** /*******************************************************************************
 436:.\Generated_Source\PSoC5/LCD_SegStatic_1.c **** * Function Name: LCD_SegStatic_1_Start
 437:.\Generated_Source\PSoC5/LCD_SegStatic_1.c **** ********************************************************************************
 438:.\Generated_Source\PSoC5/LCD_SegStatic_1.c **** *
 439:.\Generated_Source\PSoC5/LCD_SegStatic_1.c **** * Summary:
 440:.\Generated_Source\PSoC5/LCD_SegStatic_1.c **** *  Starts the LCD component , DMA channels and initializes the frame buffer.
 441:.\Generated_Source\PSoC5/LCD_SegStatic_1.c **** *
 442:.\Generated_Source\PSoC5/LCD_SegStatic_1.c **** * Parameters:
 443:.\Generated_Source\PSoC5/LCD_SegStatic_1.c **** *  None.
 444:.\Generated_Source\PSoC5/LCD_SegStatic_1.c **** *
 445:.\Generated_Source\PSoC5/LCD_SegStatic_1.c **** * Return:
 446:.\Generated_Source\PSoC5/LCD_SegStatic_1.c **** *  One of standard status for PSoC3 Component:
 447:.\Generated_Source\PSoC5/LCD_SegStatic_1.c **** *      CYRET_SUCCESS - Function completed successfully.
 448:.\Generated_Source\PSoC5/LCD_SegStatic_1.c **** *      CYRET_LOCKED - The object was locked, already in use. Some of TDs or
 449:.\Generated_Source\PSoC5/LCD_SegStatic_1.c **** *                     channel already in use.
 450:.\Generated_Source\PSoC5/LCD_SegStatic_1.c **** *
 451:.\Generated_Source\PSoC5/LCD_SegStatic_1.c **** * Global variables:
 452:.\Generated_Source\PSoC5/LCD_SegStatic_1.c **** *  LCD_SegStatic_1_initVar - is used to indicate initial configuration of
 453:.\Generated_Source\PSoC5/LCD_SegStatic_1.c **** *  this component. The variable is initialized to zero and set to 1 the first
 454:.\Generated_Source\PSoC5/LCD_SegStatic_1.c **** *  time LCD_SegStatic_1_Start() is called. This allows for component
 455:.\Generated_Source\PSoC5/LCD_SegStatic_1.c **** *  initialization without re-initialization in all subsequent calls to the
 456:.\Generated_Source\PSoC5/LCD_SegStatic_1.c **** *  LCD_SegStatic_1_Start() routine.
 457:.\Generated_Source\PSoC5/LCD_SegStatic_1.c **** *
 458:.\Generated_Source\PSoC5/LCD_SegStatic_1.c **** * Reentrant:
 459:.\Generated_Source\PSoC5/LCD_SegStatic_1.c **** *  No.
 460:.\Generated_Source\PSoC5/LCD_SegStatic_1.c **** *
 461:.\Generated_Source\PSoC5/LCD_SegStatic_1.c **** *******************************************************************************/
 462:.\Generated_Source\PSoC5/LCD_SegStatic_1.c **** uint8 LCD_SegStatic_1_Start(void) 
 463:.\Generated_Source\PSoC5/LCD_SegStatic_1.c **** {
ARM GAS  C:\Users\addis\AppData\Local\Temp\ccUS9kEI.s 			page 15


 464:.\Generated_Source\PSoC5/LCD_SegStatic_1.c ****     uint8 status;
 465:.\Generated_Source\PSoC5/LCD_SegStatic_1.c **** 
 466:.\Generated_Source\PSoC5/LCD_SegStatic_1.c ****     /* If not Initialized then initialize all required hardware and software */
 467:.\Generated_Source\PSoC5/LCD_SegStatic_1.c ****     if(LCD_SegStatic_1_initVar == 0u)
 468:.\Generated_Source\PSoC5/LCD_SegStatic_1.c ****     {
 469:.\Generated_Source\PSoC5/LCD_SegStatic_1.c ****         LCD_SegStatic_1_initVar = 1u;
 470:.\Generated_Source\PSoC5/LCD_SegStatic_1.c ****         LCD_SegStatic_1_Init();
 471:.\Generated_Source\PSoC5/LCD_SegStatic_1.c ****     }
 472:.\Generated_Source\PSoC5/LCD_SegStatic_1.c **** 
 473:.\Generated_Source\PSoC5/LCD_SegStatic_1.c ****     status = LCD_SegStatic_1_Enable();
 474:.\Generated_Source\PSoC5/LCD_SegStatic_1.c **** 
 475:.\Generated_Source\PSoC5/LCD_SegStatic_1.c ****     return(status);
 476:.\Generated_Source\PSoC5/LCD_SegStatic_1.c **** }
 477:.\Generated_Source\PSoC5/LCD_SegStatic_1.c **** 
 478:.\Generated_Source\PSoC5/LCD_SegStatic_1.c **** 
 479:.\Generated_Source\PSoC5/LCD_SegStatic_1.c **** /*******************************************************************************
 480:.\Generated_Source\PSoC5/LCD_SegStatic_1.c **** * Function Name: LCD_SegStatic_1_Stop
 481:.\Generated_Source\PSoC5/LCD_SegStatic_1.c **** ********************************************************************************
 482:.\Generated_Source\PSoC5/LCD_SegStatic_1.c **** *
 483:.\Generated_Source\PSoC5/LCD_SegStatic_1.c **** * Summary:
 484:.\Generated_Source\PSoC5/LCD_SegStatic_1.c **** *  Disables the LCD component and disables any required interrupts and DMA
 485:.\Generated_Source\PSoC5/LCD_SegStatic_1.c **** *  channels. Automatically blanks the display to avoid damage from DC offsets.
 486:.\Generated_Source\PSoC5/LCD_SegStatic_1.c **** *  Does not clear the frame buffer. Disables LCD every frame interrupt.
 487:.\Generated_Source\PSoC5/LCD_SegStatic_1.c **** *
 488:.\Generated_Source\PSoC5/LCD_SegStatic_1.c **** * Parameters:
 489:.\Generated_Source\PSoC5/LCD_SegStatic_1.c **** *  None.
 490:.\Generated_Source\PSoC5/LCD_SegStatic_1.c **** *
 491:.\Generated_Source\PSoC5/LCD_SegStatic_1.c **** * Return:
 492:.\Generated_Source\PSoC5/LCD_SegStatic_1.c **** *  None.
 493:.\Generated_Source\PSoC5/LCD_SegStatic_1.c **** *
 494:.\Generated_Source\PSoC5/LCD_SegStatic_1.c **** * Global variables:
 495:.\Generated_Source\PSoC5/LCD_SegStatic_1.c **** *  LCD_SegStatic_1_enableState - cleared to 0 by this function indicating
 496:.\Generated_Source\PSoC5/LCD_SegStatic_1.c **** *  that the component is disabled.
 497:.\Generated_Source\PSoC5/LCD_SegStatic_1.c **** *
 498:.\Generated_Source\PSoC5/LCD_SegStatic_1.c **** *******************************************************************************/
 499:.\Generated_Source\PSoC5/LCD_SegStatic_1.c **** void LCD_SegStatic_1_Stop(void) 
 500:.\Generated_Source\PSoC5/LCD_SegStatic_1.c **** {
 318              		.loc 1 500 0
 319              		.cfi_startproc
 320              		@ args = 0, pretend = 0, frame = 0
 321              		@ frame_needed = 0, uses_anonymous_args = 0
 322 0000 08B5     		push	{r3, lr}
 323              		.cfi_def_cfa_offset 8
 324              		.cfi_offset 3, -8
 325              		.cfi_offset 14, -4
 501:.\Generated_Source\PSoC5/LCD_SegStatic_1.c ****     CyIntDisable(LCD_SegStatic_1_ISR_NUMBER);
 326              		.loc 1 501 0
 327 0002 0122     		movs	r2, #1
 328 0004 054B     		ldr	r3, .L33
 329 0006 1A60     		str	r2, [r3]
 502:.\Generated_Source\PSoC5/LCD_SegStatic_1.c **** 
 503:.\Generated_Source\PSoC5/LCD_SegStatic_1.c ****     /* Stop clock generation */
 504:.\Generated_Source\PSoC5/LCD_SegStatic_1.c ****     LCD_SegStatic_1_InClock_Disable();
 330              		.loc 1 504 0
 331 0008 FFF7FEFF 		bl	LCD_SegStatic_1_InClock_Stop
 332              	.LVL40:
 505:.\Generated_Source\PSoC5/LCD_SegStatic_1.c **** 
ARM GAS  C:\Users\addis\AppData\Local\Temp\ccUS9kEI.s 			page 16


 506:.\Generated_Source\PSoC5/LCD_SegStatic_1.c ****     /* Release DMA resources used for the LCD */
 507:.\Generated_Source\PSoC5/LCD_SegStatic_1.c ****     LCD_SegStatic_1_DmaDispose();
 333              		.loc 1 507 0
 334 000c FFF7FEFF 		bl	LCD_SegStatic_1_DmaDispose
 335              	.LVL41:
 508:.\Generated_Source\PSoC5/LCD_SegStatic_1.c **** 
 509:.\Generated_Source\PSoC5/LCD_SegStatic_1.c ****     /* Now the component is disabled so save its state */
 510:.\Generated_Source\PSoC5/LCD_SegStatic_1.c ****     LCD_SegStatic_1_enableState = 0u;
 336              		.loc 1 510 0
 337 0010 0022     		movs	r2, #0
 338 0012 034B     		ldr	r3, .L33+4
 339 0014 83F82620 		strb	r2, [r3, #38]
 340 0018 08BD     		pop	{r3, pc}
 341              	.L34:
 342 001a 00BF     		.align	2
 343              	.L33:
 344 001c 80E100E0 		.word	-536813184
 345 0020 00000000 		.word	.LANCHOR0
 346              		.cfi_endproc
 347              	.LFE5:
 348              		.size	LCD_SegStatic_1_Stop, .-LCD_SegStatic_1_Stop
 349              		.section	.text.LCD_SegStatic_1_EnableInt,"ax",%progbits
 350              		.align	2
 351              		.global	LCD_SegStatic_1_EnableInt
 352              		.thumb
 353              		.thumb_func
 354              		.type	LCD_SegStatic_1_EnableInt, %function
 355              	LCD_SegStatic_1_EnableInt:
 356              	.LFB6:
 511:.\Generated_Source\PSoC5/LCD_SegStatic_1.c **** }
 512:.\Generated_Source\PSoC5/LCD_SegStatic_1.c **** 
 513:.\Generated_Source\PSoC5/LCD_SegStatic_1.c **** 
 514:.\Generated_Source\PSoC5/LCD_SegStatic_1.c **** /*******************************************************************************
 515:.\Generated_Source\PSoC5/LCD_SegStatic_1.c **** * Function Name: LCD_SegStatic_1_EnableInt
 516:.\Generated_Source\PSoC5/LCD_SegStatic_1.c **** ********************************************************************************
 517:.\Generated_Source\PSoC5/LCD_SegStatic_1.c **** *
 518:.\Generated_Source\PSoC5/LCD_SegStatic_1.c **** * Summary:
 519:.\Generated_Source\PSoC5/LCD_SegStatic_1.c **** *  Enables LCD every-frame interrupt.
 520:.\Generated_Source\PSoC5/LCD_SegStatic_1.c **** *
 521:.\Generated_Source\PSoC5/LCD_SegStatic_1.c **** * Parameters:
 522:.\Generated_Source\PSoC5/LCD_SegStatic_1.c **** *  None.
 523:.\Generated_Source\PSoC5/LCD_SegStatic_1.c **** *
 524:.\Generated_Source\PSoC5/LCD_SegStatic_1.c **** * Return:
 525:.\Generated_Source\PSoC5/LCD_SegStatic_1.c **** *  None.
 526:.\Generated_Source\PSoC5/LCD_SegStatic_1.c **** *
 527:.\Generated_Source\PSoC5/LCD_SegStatic_1.c **** *******************************************************************************/
 528:.\Generated_Source\PSoC5/LCD_SegStatic_1.c **** void LCD_SegStatic_1_EnableInt(void) 
 529:.\Generated_Source\PSoC5/LCD_SegStatic_1.c **** {
 357              		.loc 1 529 0
 358              		.cfi_startproc
 359              		@ args = 0, pretend = 0, frame = 0
 360              		@ frame_needed = 0, uses_anonymous_args = 0
 361              		@ link register save eliminated.
 530:.\Generated_Source\PSoC5/LCD_SegStatic_1.c ****     CyIntEnable(LCD_SegStatic_1_ISR_NUMBER);
 362              		.loc 1 530 0
 363 0000 0122     		movs	r2, #1
 364 0002 014B     		ldr	r3, .L36
ARM GAS  C:\Users\addis\AppData\Local\Temp\ccUS9kEI.s 			page 17


 365 0004 1A60     		str	r2, [r3]
 366 0006 7047     		bx	lr
 367              	.L37:
 368              		.align	2
 369              	.L36:
 370 0008 00E100E0 		.word	-536813312
 371              		.cfi_endproc
 372              	.LFE6:
 373              		.size	LCD_SegStatic_1_EnableInt, .-LCD_SegStatic_1_EnableInt
 374              		.section	.text.LCD_SegStatic_1_DisableInt,"ax",%progbits
 375              		.align	2
 376              		.global	LCD_SegStatic_1_DisableInt
 377              		.thumb
 378              		.thumb_func
 379              		.type	LCD_SegStatic_1_DisableInt, %function
 380              	LCD_SegStatic_1_DisableInt:
 381              	.LFB7:
 531:.\Generated_Source\PSoC5/LCD_SegStatic_1.c **** }
 532:.\Generated_Source\PSoC5/LCD_SegStatic_1.c **** 
 533:.\Generated_Source\PSoC5/LCD_SegStatic_1.c **** 
 534:.\Generated_Source\PSoC5/LCD_SegStatic_1.c **** /*******************************************************************************
 535:.\Generated_Source\PSoC5/LCD_SegStatic_1.c **** * Function Name: LCD_SegStatic_1_DisableInt
 536:.\Generated_Source\PSoC5/LCD_SegStatic_1.c **** ********************************************************************************
 537:.\Generated_Source\PSoC5/LCD_SegStatic_1.c **** * Summary:
 538:.\Generated_Source\PSoC5/LCD_SegStatic_1.c **** *  Description: Disables LCD interrupt. Not required if LCD_SegStatic_1_Stop
 539:.\Generated_Source\PSoC5/LCD_SegStatic_1.c **** *  called.
 540:.\Generated_Source\PSoC5/LCD_SegStatic_1.c **** *
 541:.\Generated_Source\PSoC5/LCD_SegStatic_1.c **** * Parameters:
 542:.\Generated_Source\PSoC5/LCD_SegStatic_1.c **** *  None.
 543:.\Generated_Source\PSoC5/LCD_SegStatic_1.c **** *
 544:.\Generated_Source\PSoC5/LCD_SegStatic_1.c **** * Return:
 545:.\Generated_Source\PSoC5/LCD_SegStatic_1.c **** *  None.
 546:.\Generated_Source\PSoC5/LCD_SegStatic_1.c **** *
 547:.\Generated_Source\PSoC5/LCD_SegStatic_1.c **** *******************************************************************************/
 548:.\Generated_Source\PSoC5/LCD_SegStatic_1.c **** void LCD_SegStatic_1_DisableInt(void) 
 549:.\Generated_Source\PSoC5/LCD_SegStatic_1.c **** {
 382              		.loc 1 549 0
 383              		.cfi_startproc
 384              		@ args = 0, pretend = 0, frame = 0
 385              		@ frame_needed = 0, uses_anonymous_args = 0
 386              		@ link register save eliminated.
 550:.\Generated_Source\PSoC5/LCD_SegStatic_1.c ****    CyIntDisable(LCD_SegStatic_1_ISR_NUMBER);
 387              		.loc 1 550 0
 388 0000 0122     		movs	r2, #1
 389 0002 014B     		ldr	r3, .L39
 390 0004 1A60     		str	r2, [r3]
 391 0006 7047     		bx	lr
 392              	.L40:
 393              		.align	2
 394              	.L39:
 395 0008 80E100E0 		.word	-536813184
 396              		.cfi_endproc
 397              	.LFE7:
 398              		.size	LCD_SegStatic_1_DisableInt, .-LCD_SegStatic_1_DisableInt
 399              		.section	.text.LCD_SegStatic_1_ReadPixel,"ax",%progbits
 400              		.align	2
 401              		.global	LCD_SegStatic_1_ReadPixel
ARM GAS  C:\Users\addis\AppData\Local\Temp\ccUS9kEI.s 			page 18


 402              		.thumb
 403              		.thumb_func
 404              		.type	LCD_SegStatic_1_ReadPixel, %function
 405              	LCD_SegStatic_1_ReadPixel:
 406              	.LFB10:
 551:.\Generated_Source\PSoC5/LCD_SegStatic_1.c **** }
 552:.\Generated_Source\PSoC5/LCD_SegStatic_1.c **** 
 553:.\Generated_Source\PSoC5/LCD_SegStatic_1.c **** 
 554:.\Generated_Source\PSoC5/LCD_SegStatic_1.c **** /*******************************************************************************
 555:.\Generated_Source\PSoC5/LCD_SegStatic_1.c **** * Function Name: LCD_SegStatic_1_ClearDisplay
 556:.\Generated_Source\PSoC5/LCD_SegStatic_1.c **** ********************************************************************************
 557:.\Generated_Source\PSoC5/LCD_SegStatic_1.c **** *
 558:.\Generated_Source\PSoC5/LCD_SegStatic_1.c **** * Summary:
 559:.\Generated_Source\PSoC5/LCD_SegStatic_1.c **** *  This function clears the display RAM of the frame buffer.
 560:.\Generated_Source\PSoC5/LCD_SegStatic_1.c **** *
 561:.\Generated_Source\PSoC5/LCD_SegStatic_1.c **** * Parameters:
 562:.\Generated_Source\PSoC5/LCD_SegStatic_1.c **** *  None.
 563:.\Generated_Source\PSoC5/LCD_SegStatic_1.c **** *
 564:.\Generated_Source\PSoC5/LCD_SegStatic_1.c **** * Return:
 565:.\Generated_Source\PSoC5/LCD_SegStatic_1.c **** *  None.
 566:.\Generated_Source\PSoC5/LCD_SegStatic_1.c **** *
 567:.\Generated_Source\PSoC5/LCD_SegStatic_1.c **** * Global variables:
 568:.\Generated_Source\PSoC5/LCD_SegStatic_1.c **** *  LCD_SegStatic_1_buffer[] - an array is modified by this API. Clears the
 569:.\Generated_Source\PSoC5/LCD_SegStatic_1.c **** *  frame buffer to all zeroes and then reinitialize it with a 1 in the
 570:.\Generated_Source\PSoC5/LCD_SegStatic_1.c **** *  locations specified by the values from LCD_SegStatic_1_commons[].
 571:.\Generated_Source\PSoC5/LCD_SegStatic_1.c **** *
 572:.\Generated_Source\PSoC5/LCD_SegStatic_1.c **** *  LCD_SegStatic_1_commons[] - holds the pixel locations for common lines.
 573:.\Generated_Source\PSoC5/LCD_SegStatic_1.c **** *
 574:.\Generated_Source\PSoC5/LCD_SegStatic_1.c **** * Reentrant:
 575:.\Generated_Source\PSoC5/LCD_SegStatic_1.c **** *  No.
 576:.\Generated_Source\PSoC5/LCD_SegStatic_1.c **** *
 577:.\Generated_Source\PSoC5/LCD_SegStatic_1.c **** *******************************************************************************/
 578:.\Generated_Source\PSoC5/LCD_SegStatic_1.c **** void LCD_SegStatic_1_ClearDisplay(void) 
 579:.\Generated_Source\PSoC5/LCD_SegStatic_1.c **** {
 580:.\Generated_Source\PSoC5/LCD_SegStatic_1.c ****     uint16 i;
 581:.\Generated_Source\PSoC5/LCD_SegStatic_1.c **** 
 582:.\Generated_Source\PSoC5/LCD_SegStatic_1.c ****     /* Clear entire frame buffer to "zero" values */
 583:.\Generated_Source\PSoC5/LCD_SegStatic_1.c ****     for(i = 0u ; i < LCD_SegStatic_1_BUFFER_LENGTH; i++)
 584:.\Generated_Source\PSoC5/LCD_SegStatic_1.c ****     {
 585:.\Generated_Source\PSoC5/LCD_SegStatic_1.c ****         if(i < (LCD_SegStatic_1_BUFFER_LENGTH / 2u))
 586:.\Generated_Source\PSoC5/LCD_SegStatic_1.c ****         {
 587:.\Generated_Source\PSoC5/LCD_SegStatic_1.c ****             /* First line(frame) of the buffer should contain pixel data */
 588:.\Generated_Source\PSoC5/LCD_SegStatic_1.c ****             LCD_SegStatic_1_buffer[i] = 0x00u;
 589:.\Generated_Source\PSoC5/LCD_SegStatic_1.c ****         }
 590:.\Generated_Source\PSoC5/LCD_SegStatic_1.c ****         else
 591:.\Generated_Source\PSoC5/LCD_SegStatic_1.c ****         {
 592:.\Generated_Source\PSoC5/LCD_SegStatic_1.c ****             /* Second line(frame) of the buffer should contain inverted pixel data */
 593:.\Generated_Source\PSoC5/LCD_SegStatic_1.c ****             LCD_SegStatic_1_buffer[i] = 0xFFu;
 594:.\Generated_Source\PSoC5/LCD_SegStatic_1.c ****         }
 595:.\Generated_Source\PSoC5/LCD_SegStatic_1.c ****     }
 596:.\Generated_Source\PSoC5/LCD_SegStatic_1.c **** 
 597:.\Generated_Source\PSoC5/LCD_SegStatic_1.c ****     /* Reinitialize the commons */
 598:.\Generated_Source\PSoC5/LCD_SegStatic_1.c ****     LCD_SegStatic_1_WRITE_PIXEL(LCD_SegStatic_1_commons[0u], LCD_SegStatic_1_PIXEL_STATE_OFF);
 599:.\Generated_Source\PSoC5/LCD_SegStatic_1.c **** }
 600:.\Generated_Source\PSoC5/LCD_SegStatic_1.c **** 
 601:.\Generated_Source\PSoC5/LCD_SegStatic_1.c **** 
 602:.\Generated_Source\PSoC5/LCD_SegStatic_1.c **** /*******************************************************************************
ARM GAS  C:\Users\addis\AppData\Local\Temp\ccUS9kEI.s 			page 19


 603:.\Generated_Source\PSoC5/LCD_SegStatic_1.c **** * Function Name: LCD_SegStatic_1_WritePixel
 604:.\Generated_Source\PSoC5/LCD_SegStatic_1.c **** ********************************************************************************
 605:.\Generated_Source\PSoC5/LCD_SegStatic_1.c **** *
 606:.\Generated_Source\PSoC5/LCD_SegStatic_1.c **** * Summary:
 607:.\Generated_Source\PSoC5/LCD_SegStatic_1.c **** *  This function sets or clears a pixel based on pixelState in a frame buffer.
 608:.\Generated_Source\PSoC5/LCD_SegStatic_1.c **** *  The Pixel is addressed by a packed number.
 609:.\Generated_Source\PSoC5/LCD_SegStatic_1.c **** *
 610:.\Generated_Source\PSoC5/LCD_SegStatic_1.c **** * Parameters:
 611:.\Generated_Source\PSoC5/LCD_SegStatic_1.c **** *  pixelNumber: is the packed number that points to the pixels location in the
 612:.\Generated_Source\PSoC5/LCD_SegStatic_1.c **** *               frame buffer. The lowest three bits in the LSB low nibble are
 613:.\Generated_Source\PSoC5/LCD_SegStatic_1.c **** *               the bit position in the byte, the LSB upper nibble (4 bits) is
 614:.\Generated_Source\PSoC5/LCD_SegStatic_1.c **** *               the byte address in the multiplex Row and the MSB low nibble
 615:.\Generated_Source\PSoC5/LCD_SegStatic_1.c **** *               (4 bits) is the multiplex Row number.
 616:.\Generated_Source\PSoC5/LCD_SegStatic_1.c **** *  pixelState : 0 for pixel off,1 for pixel on, 2 for pixel invert.
 617:.\Generated_Source\PSoC5/LCD_SegStatic_1.c **** *
 618:.\Generated_Source\PSoC5/LCD_SegStatic_1.c **** * Return:
 619:.\Generated_Source\PSoC5/LCD_SegStatic_1.c **** *  Status returns the standardized return value for pass or fail on a range
 620:.\Generated_Source\PSoC5/LCD_SegStatic_1.c **** *  check of the byte address and multiplex Row number:
 621:.\Generated_Source\PSoC5/LCD_SegStatic_1.c **** *      CYRET_SUCCESS - Function completed successfully.
 622:.\Generated_Source\PSoC5/LCD_SegStatic_1.c **** *      CYRET_BAD_PARAM - One of the parameters is invalid.
 623:.\Generated_Source\PSoC5/LCD_SegStatic_1.c **** *
 624:.\Generated_Source\PSoC5/LCD_SegStatic_1.c **** * Global variables:
 625:.\Generated_Source\PSoC5/LCD_SegStatic_1.c **** *  LCD_SegStatic_1_buffer[] - an array is modified by this API. This API sets
 626:.\Generated_Source\PSoC5/LCD_SegStatic_1.c **** *  or clears certain bit in the array defined by the input parameter.
 627:.\Generated_Source\PSoC5/LCD_SegStatic_1.c **** *
 628:.\Generated_Source\PSoC5/LCD_SegStatic_1.c **** * Reentrant:
 629:.\Generated_Source\PSoC5/LCD_SegStatic_1.c **** *  No.
 630:.\Generated_Source\PSoC5/LCD_SegStatic_1.c **** *
 631:.\Generated_Source\PSoC5/LCD_SegStatic_1.c **** *******************************************************************************/
 632:.\Generated_Source\PSoC5/LCD_SegStatic_1.c **** uint8 LCD_SegStatic_1_WritePixel(uint16 pixelNumber, uint8 pixelState) 
 633:.\Generated_Source\PSoC5/LCD_SegStatic_1.c **** {
 634:.\Generated_Source\PSoC5/LCD_SegStatic_1.c ****     uint16 byteAddr;
 635:.\Generated_Source\PSoC5/LCD_SegStatic_1.c ****     uint16 bitAddr;
 636:.\Generated_Source\PSoC5/LCD_SegStatic_1.c ****     uint16 row;
 637:.\Generated_Source\PSoC5/LCD_SegStatic_1.c ****     uint8 mask;
 638:.\Generated_Source\PSoC5/LCD_SegStatic_1.c ****     uint8 status;
 639:.\Generated_Source\PSoC5/LCD_SegStatic_1.c **** 
 640:.\Generated_Source\PSoC5/LCD_SegStatic_1.c ****     /* Let the User know that he has entered wrong parameter
 641:.\Generated_Source\PSoC5/LCD_SegStatic_1.c ****     * which is pixel state greater than 2 or unconnected pixel.
 642:.\Generated_Source\PSoC5/LCD_SegStatic_1.c ****     */
 643:.\Generated_Source\PSoC5/LCD_SegStatic_1.c ****     if((pixelState > LCD_SegStatic_1_PIXEL_STATE_INVERT) || (pixelNumber == LCD_SegStatic_1_NOT_CON
 644:.\Generated_Source\PSoC5/LCD_SegStatic_1.c ****     {
 645:.\Generated_Source\PSoC5/LCD_SegStatic_1.c ****         status = CYRET_BAD_PARAM;
 646:.\Generated_Source\PSoC5/LCD_SegStatic_1.c ****     }
 647:.\Generated_Source\PSoC5/LCD_SegStatic_1.c ****     else
 648:.\Generated_Source\PSoC5/LCD_SegStatic_1.c ****     {
 649:.\Generated_Source\PSoC5/LCD_SegStatic_1.c ****         /* Extract bit position in the byte */
 650:.\Generated_Source\PSoC5/LCD_SegStatic_1.c ****         bitAddr = (pixelNumber & LCD_SegStatic_1_BIT_MASK);
 651:.\Generated_Source\PSoC5/LCD_SegStatic_1.c **** 
 652:.\Generated_Source\PSoC5/LCD_SegStatic_1.c ****         /* Extract byte position in the Row */
 653:.\Generated_Source\PSoC5/LCD_SegStatic_1.c ****         byteAddr = (pixelNumber & LCD_SegStatic_1_PORT_MASK) >> LCD_SegStatic_1_PORT_SHIFT;
 654:.\Generated_Source\PSoC5/LCD_SegStatic_1.c **** 
 655:.\Generated_Source\PSoC5/LCD_SegStatic_1.c ****         /* Extract Row position */
 656:.\Generated_Source\PSoC5/LCD_SegStatic_1.c ****         row = (pixelNumber & LCD_SegStatic_1_ROW_MASK) >> LCD_SegStatic_1_ROW_SHIFT;
 657:.\Generated_Source\PSoC5/LCD_SegStatic_1.c **** 
 658:.\Generated_Source\PSoC5/LCD_SegStatic_1.c ****         if(pixelState == LCD_SegStatic_1_PIXEL_STATE_INVERT)
 659:.\Generated_Source\PSoC5/LCD_SegStatic_1.c ****         {
ARM GAS  C:\Users\addis\AppData\Local\Temp\ccUS9kEI.s 			page 20


 660:.\Generated_Source\PSoC5/LCD_SegStatic_1.c ****             /* Invert actual pixel state */
 661:.\Generated_Source\PSoC5/LCD_SegStatic_1.c ****             pixelState = ~(LCD_SegStatic_1_ReadPixel(pixelNumber));
 662:.\Generated_Source\PSoC5/LCD_SegStatic_1.c ****         }
 663:.\Generated_Source\PSoC5/LCD_SegStatic_1.c **** 
 664:.\Generated_Source\PSoC5/LCD_SegStatic_1.c ****         mask = ~(uint8) (((uint8) LCD_SegStatic_1_PIXEL_STATE_ON) << bitAddr);
 665:.\Generated_Source\PSoC5/LCD_SegStatic_1.c **** 
 666:.\Generated_Source\PSoC5/LCD_SegStatic_1.c ****         /* Set pixel in first frame buffer line */
 667:.\Generated_Source\PSoC5/LCD_SegStatic_1.c ****         LCD_SegStatic_1_buffer[(row * LCD_SegStatic_1_ROW_BYTE_LENGTH) + byteAddr] =
 668:.\Generated_Source\PSoC5/LCD_SegStatic_1.c ****             (LCD_SegStatic_1_buffer[(row * LCD_SegStatic_1_ROW_BYTE_LENGTH) + byteAddr] & mask) |
 669:.\Generated_Source\PSoC5/LCD_SegStatic_1.c ****             ((uint8) (((uint8) pixelState) << bitAddr));
 670:.\Generated_Source\PSoC5/LCD_SegStatic_1.c **** 
 671:.\Generated_Source\PSoC5/LCD_SegStatic_1.c ****         /* Invert pixel state */
 672:.\Generated_Source\PSoC5/LCD_SegStatic_1.c ****         pixelState ^= LCD_SegStatic_1_PIXEL_STATE_ON;
 673:.\Generated_Source\PSoC5/LCD_SegStatic_1.c **** 
 674:.\Generated_Source\PSoC5/LCD_SegStatic_1.c ****         LCD_SegStatic_1_buffer[((row + 1u) * LCD_SegStatic_1_ROW_BYTE_LENGTH) + byteAddr] =
 675:.\Generated_Source\PSoC5/LCD_SegStatic_1.c ****             (LCD_SegStatic_1_buffer[((row + 1u) * LCD_SegStatic_1_ROW_BYTE_LENGTH) + byteAddr] & ma
 676:.\Generated_Source\PSoC5/LCD_SegStatic_1.c ****             ((uint8) (((uint8) pixelState) << bitAddr));
 677:.\Generated_Source\PSoC5/LCD_SegStatic_1.c **** 
 678:.\Generated_Source\PSoC5/LCD_SegStatic_1.c ****         status = CYRET_SUCCESS;
 679:.\Generated_Source\PSoC5/LCD_SegStatic_1.c ****     }
 680:.\Generated_Source\PSoC5/LCD_SegStatic_1.c **** 
 681:.\Generated_Source\PSoC5/LCD_SegStatic_1.c ****     return(status);
 682:.\Generated_Source\PSoC5/LCD_SegStatic_1.c **** }
 683:.\Generated_Source\PSoC5/LCD_SegStatic_1.c **** 
 684:.\Generated_Source\PSoC5/LCD_SegStatic_1.c **** 
 685:.\Generated_Source\PSoC5/LCD_SegStatic_1.c **** /*******************************************************************************
 686:.\Generated_Source\PSoC5/LCD_SegStatic_1.c **** * Function Name: LCD_SegStatic_1_ReadPixel
 687:.\Generated_Source\PSoC5/LCD_SegStatic_1.c **** ********************************************************************************
 688:.\Generated_Source\PSoC5/LCD_SegStatic_1.c **** *
 689:.\Generated_Source\PSoC5/LCD_SegStatic_1.c **** * Summary:
 690:.\Generated_Source\PSoC5/LCD_SegStatic_1.c **** *  This function reads a pixels state in a large frame buffer. The Pixel is
 691:.\Generated_Source\PSoC5/LCD_SegStatic_1.c **** *  addressed by a packed number.
 692:.\Generated_Source\PSoC5/LCD_SegStatic_1.c **** *
 693:.\Generated_Source\PSoC5/LCD_SegStatic_1.c **** * Parameters:
 694:.\Generated_Source\PSoC5/LCD_SegStatic_1.c **** *  pixelNumber: is the packed number that points to the pixels location in the
 695:.\Generated_Source\PSoC5/LCD_SegStatic_1.c **** *               frame buffer. The lowest three bits in the LSB low nibble are
 696:.\Generated_Source\PSoC5/LCD_SegStatic_1.c **** *               the bit position in the byte, the LSB upper nibble (4 bits) is
 697:.\Generated_Source\PSoC5/LCD_SegStatic_1.c **** *               the byte address in the multiplex Row and the MSB low nibble
 698:.\Generated_Source\PSoC5/LCD_SegStatic_1.c **** *               (4 bits) is the multiplex Row number.
 699:.\Generated_Source\PSoC5/LCD_SegStatic_1.c **** *
 700:.\Generated_Source\PSoC5/LCD_SegStatic_1.c **** * Return:
 701:.\Generated_Source\PSoC5/LCD_SegStatic_1.c **** *  Pixel State:
 702:.\Generated_Source\PSoC5/LCD_SegStatic_1.c **** *      0x00 (LCD_SegStatic_1_PIXEL_STATE_OFF) - for pixel off.
 703:.\Generated_Source\PSoC5/LCD_SegStatic_1.c **** *      0x01 (LCD_SegStatic_1_PIXEL_STATE_ON) - for pixel on.
 704:.\Generated_Source\PSoC5/LCD_SegStatic_1.c **** *      0xFF (LCD_SegStatic_1_PIXEL_UNKNOWN_STATE) - indicates that pixel
 705:.\Generated_Source\PSoC5/LCD_SegStatic_1.c **** *                                                    isn't assigned.
 706:.\Generated_Source\PSoC5/LCD_SegStatic_1.c **** *
 707:.\Generated_Source\PSoC5/LCD_SegStatic_1.c **** * Global variables:
 708:.\Generated_Source\PSoC5/LCD_SegStatic_1.c **** *  LCD_SegStatic_1_buffer[] - holds the state of every pixel of the LCD glass
 709:.\Generated_Source\PSoC5/LCD_SegStatic_1.c **** *  which can be read by this function.
 710:.\Generated_Source\PSoC5/LCD_SegStatic_1.c **** *
 711:.\Generated_Source\PSoC5/LCD_SegStatic_1.c **** *******************************************************************************/
 712:.\Generated_Source\PSoC5/LCD_SegStatic_1.c **** uint8 LCD_SegStatic_1_ReadPixel(uint16 pixelNumber) 
 713:.\Generated_Source\PSoC5/LCD_SegStatic_1.c **** {
 407              		.loc 1 713 0
 408              		.cfi_startproc
 409              		@ args = 0, pretend = 0, frame = 0
ARM GAS  C:\Users\addis\AppData\Local\Temp\ccUS9kEI.s 			page 21


 410              		@ frame_needed = 0, uses_anonymous_args = 0
 411              		@ link register save eliminated.
 412              	.LVL42:
 714:.\Generated_Source\PSoC5/LCD_SegStatic_1.c ****     uint16 byteAddr;
 715:.\Generated_Source\PSoC5/LCD_SegStatic_1.c ****     uint16 bitAddr;
 716:.\Generated_Source\PSoC5/LCD_SegStatic_1.c ****     uint16 row;
 717:.\Generated_Source\PSoC5/LCD_SegStatic_1.c ****     uint8 pixelState;
 718:.\Generated_Source\PSoC5/LCD_SegStatic_1.c **** 
 719:.\Generated_Source\PSoC5/LCD_SegStatic_1.c ****     if(pixelNumber != LCD_SegStatic_1_NOT_CON)
 413              		.loc 1 719 0
 414 0000 FF28     		cmp	r0, #255
 415 0002 09D0     		beq	.L43
 720:.\Generated_Source\PSoC5/LCD_SegStatic_1.c ****     {
 721:.\Generated_Source\PSoC5/LCD_SegStatic_1.c ****         /* Extract all required information from pixelNumber to address required pixel */
 722:.\Generated_Source\PSoC5/LCD_SegStatic_1.c ****         bitAddr = (pixelNumber & LCD_SegStatic_1_BIT_MASK);
 416              		.loc 1 722 0
 417 0004 00F00703 		and	r3, r0, #7
 418              	.LVL43:
 723:.\Generated_Source\PSoC5/LCD_SegStatic_1.c ****         byteAddr = (pixelNumber & LCD_SegStatic_1_PORT_MASK) >> LCD_SegStatic_1_PORT_SHIFT;
 724:.\Generated_Source\PSoC5/LCD_SegStatic_1.c ****         row = (pixelNumber & LCD_SegStatic_1_ROW_MASK) >> LCD_SegStatic_1_ROW_SHIFT;
 725:.\Generated_Source\PSoC5/LCD_SegStatic_1.c **** 
 726:.\Generated_Source\PSoC5/LCD_SegStatic_1.c ****         pixelState = ((LCD_SegStatic_1_buffer[(row * LCD_SegStatic_1_ROW_BYTE_LENGTH) + byteAddr] >
 419              		.loc 1 726 0
 420 0008 C0F30710 		ubfx	r0, r0, #4, #8
 421              	.LVL44:
 422 000c 034A     		ldr	r2, .L44
 423 000e 105C     		ldrb	r0, [r2, r0]	@ zero_extendqisi2
 424 0010 1841     		asrs	r0, r0, r3
 425 0012 00F00100 		and	r0, r0, #1
 426              	.LVL45:
 427 0016 7047     		bx	lr
 428              	.LVL46:
 429              	.L43:
 727:.\Generated_Source\PSoC5/LCD_SegStatic_1.c ****                        LCD_SegStatic_1_PIXEL_STATE_ON);
 728:.\Generated_Source\PSoC5/LCD_SegStatic_1.c ****     }
 729:.\Generated_Source\PSoC5/LCD_SegStatic_1.c ****     else
 730:.\Generated_Source\PSoC5/LCD_SegStatic_1.c ****     {
 731:.\Generated_Source\PSoC5/LCD_SegStatic_1.c ****         /* Indicate that the pixel number is invalid */
 732:.\Generated_Source\PSoC5/LCD_SegStatic_1.c ****         pixelState = LCD_SegStatic_1_PIXEL_UNKNOWN_STATE;
 430              		.loc 1 732 0
 431 0018 FF20     		movs	r0, #255
 432              	.LVL47:
 733:.\Generated_Source\PSoC5/LCD_SegStatic_1.c ****     }
 734:.\Generated_Source\PSoC5/LCD_SegStatic_1.c **** 
 735:.\Generated_Source\PSoC5/LCD_SegStatic_1.c ****     return (pixelState);
 736:.\Generated_Source\PSoC5/LCD_SegStatic_1.c **** }
 433              		.loc 1 736 0
 434 001a 7047     		bx	lr
 435              	.L45:
 436              		.align	2
 437              	.L44:
 438 001c 00000000 		.word	.LANCHOR0
 439              		.cfi_endproc
 440              	.LFE10:
 441              		.size	LCD_SegStatic_1_ReadPixel, .-LCD_SegStatic_1_ReadPixel
 442              		.section	.text.LCD_SegStatic_1_WritePixel,"ax",%progbits
 443              		.align	2
ARM GAS  C:\Users\addis\AppData\Local\Temp\ccUS9kEI.s 			page 22


 444              		.global	LCD_SegStatic_1_WritePixel
 445              		.thumb
 446              		.thumb_func
 447              		.type	LCD_SegStatic_1_WritePixel, %function
 448              	LCD_SegStatic_1_WritePixel:
 449              	.LFB9:
 633:.\Generated_Source\PSoC5/LCD_SegStatic_1.c ****     uint16 byteAddr;
 450              		.loc 1 633 0
 451              		.cfi_startproc
 452              		@ args = 0, pretend = 0, frame = 0
 453              		@ frame_needed = 0, uses_anonymous_args = 0
 454              	.LVL48:
 643:.\Generated_Source\PSoC5/LCD_SegStatic_1.c ****     {
 455              		.loc 1 643 0
 456 0000 0229     		cmp	r1, #2
 457 0002 2BD8     		bhi	.L49
 643:.\Generated_Source\PSoC5/LCD_SegStatic_1.c ****     {
 458              		.loc 1 643 0 is_stmt 0 discriminator 1
 459 0004 FF28     		cmp	r0, #255
 460 0006 2BD0     		beq	.L50
 633:.\Generated_Source\PSoC5/LCD_SegStatic_1.c ****     uint16 byteAddr;
 461              		.loc 1 633 0 is_stmt 1
 462 0008 F8B5     		push	{r3, r4, r5, r6, r7, lr}
 463              		.cfi_def_cfa_offset 24
 464              		.cfi_offset 3, -24
 465              		.cfi_offset 4, -20
 466              		.cfi_offset 5, -16
 467              		.cfi_offset 6, -12
 468              		.cfi_offset 7, -8
 469              		.cfi_offset 14, -4
 650:.\Generated_Source\PSoC5/LCD_SegStatic_1.c **** 
 470              		.loc 1 650 0
 471 000a 00F00705 		and	r5, r0, #7
 472              	.LVL49:
 653:.\Generated_Source\PSoC5/LCD_SegStatic_1.c **** 
 473              		.loc 1 653 0
 474 000e C0F30314 		ubfx	r4, r0, #4, #4
 475              	.LVL50:
 656:.\Generated_Source\PSoC5/LCD_SegStatic_1.c **** 
 476              		.loc 1 656 0
 477 0012 C0F30326 		ubfx	r6, r0, #8, #4
 478              	.LVL51:
 658:.\Generated_Source\PSoC5/LCD_SegStatic_1.c ****         {
 479              		.loc 1 658 0
 480 0016 0229     		cmp	r1, #2
 481 0018 03D1     		bne	.L48
 661:.\Generated_Source\PSoC5/LCD_SegStatic_1.c ****         }
 482              		.loc 1 661 0
 483 001a FFF7FEFF 		bl	LCD_SegStatic_1_ReadPixel
 484              	.LVL52:
 485 001e C043     		mvns	r0, r0
 486 0020 C1B2     		uxtb	r1, r0
 487              	.LVL53:
 488              	.L48:
 664:.\Generated_Source\PSoC5/LCD_SegStatic_1.c **** 
 489              		.loc 1 664 0
 490 0022 0123     		movs	r3, #1
ARM GAS  C:\Users\addis\AppData\Local\Temp\ccUS9kEI.s 			page 23


 491 0024 AB40     		lsls	r3, r3, r5
 492 0026 DB43     		mvns	r3, r3
 493 0028 03F0FF03 		and	r3, r3, #255
 494              	.LVL54:
 668:.\Generated_Source\PSoC5/LCD_SegStatic_1.c ****             ((uint8) (((uint8) pixelState) << bitAddr));
 495              		.loc 1 668 0
 496 002c B2B2     		uxth	r2, r6
 497 002e A0B2     		uxth	r0, r4
 498 0030 00EB0217 		add	r7, r0, r2, lsl #4
 499 0034 0B4E     		ldr	r6, .L53
 500              	.LVL55:
 501 0036 F45D     		ldrb	r4, [r6, r7]	@ zero_extendqisi2
 502              	.LVL56:
 669:.\Generated_Source\PSoC5/LCD_SegStatic_1.c **** 
 503              		.loc 1 669 0
 504 0038 01FA05FE 		lsl	lr, r1, r5
 667:.\Generated_Source\PSoC5/LCD_SegStatic_1.c ****             (LCD_SegStatic_1_buffer[(row * LCD_SegStatic_1_ROW_BYTE_LENGTH) + byteAddr] & mask) |
 505              		.loc 1 667 0
 506 003c 1C40     		ands	r4, r4, r3
 507 003e 4EEA0404 		orr	r4, lr, r4
 508 0042 F455     		strb	r4, [r6, r7]
 672:.\Generated_Source\PSoC5/LCD_SegStatic_1.c **** 
 509              		.loc 1 672 0
 510 0044 81F00101 		eor	r1, r1, #1
 511              	.LVL57:
 675:.\Generated_Source\PSoC5/LCD_SegStatic_1.c ****             ((uint8) (((uint8) pixelState) << bitAddr));
 512              		.loc 1 675 0
 513 0048 0132     		adds	r2, r2, #1
 514              	.LVL58:
 515 004a 00EB0212 		add	r2, r0, r2, lsl #4
 516              	.LVL59:
 517 004e B05C     		ldrb	r0, [r6, r2]	@ zero_extendqisi2
 518              	.LVL60:
 676:.\Generated_Source\PSoC5/LCD_SegStatic_1.c **** 
 519              		.loc 1 676 0
 520 0050 A940     		lsls	r1, r1, r5
 521              	.LVL61:
 674:.\Generated_Source\PSoC5/LCD_SegStatic_1.c ****             (LCD_SegStatic_1_buffer[((row + 1u) * LCD_SegStatic_1_ROW_BYTE_LENGTH) + byteAddr] & ma
 522              		.loc 1 674 0
 523 0052 0340     		ands	r3, r3, r0
 524              	.LVL62:
 525 0054 1943     		orrs	r1, r1, r3
 526 0056 B154     		strb	r1, [r6, r2]
 527              	.LVL63:
 678:.\Generated_Source\PSoC5/LCD_SegStatic_1.c ****     }
 528              		.loc 1 678 0
 529 0058 0020     		movs	r0, #0
 530 005a F8BD     		pop	{r3, r4, r5, r6, r7, pc}
 531              	.LVL64:
 532              	.L49:
 533              		.cfi_def_cfa_offset 0
 534              		.cfi_restore 3
 535              		.cfi_restore 4
 536              		.cfi_restore 5
 537              		.cfi_restore 6
 538              		.cfi_restore 7
 539              		.cfi_restore 14
ARM GAS  C:\Users\addis\AppData\Local\Temp\ccUS9kEI.s 			page 24


 645:.\Generated_Source\PSoC5/LCD_SegStatic_1.c ****     }
 540              		.loc 1 645 0
 541 005c 0120     		movs	r0, #1
 542              	.LVL65:
 543 005e 7047     		bx	lr
 544              	.LVL66:
 545              	.L50:
 546 0060 0120     		movs	r0, #1
 547              	.LVL67:
 548 0062 7047     		bx	lr
 549              	.L54:
 550              		.align	2
 551              	.L53:
 552 0064 00000000 		.word	.LANCHOR0
 553              		.cfi_endproc
 554              	.LFE9:
 555              		.size	LCD_SegStatic_1_WritePixel, .-LCD_SegStatic_1_WritePixel
 556              		.section	.text.LCD_SegStatic_1_ClearDisplay,"ax",%progbits
 557              		.align	2
 558              		.global	LCD_SegStatic_1_ClearDisplay
 559              		.thumb
 560              		.thumb_func
 561              		.type	LCD_SegStatic_1_ClearDisplay, %function
 562              	LCD_SegStatic_1_ClearDisplay:
 563              	.LFB8:
 579:.\Generated_Source\PSoC5/LCD_SegStatic_1.c ****     uint16 i;
 564              		.loc 1 579 0
 565              		.cfi_startproc
 566              		@ args = 0, pretend = 0, frame = 0
 567              		@ frame_needed = 0, uses_anonymous_args = 0
 568 0000 08B5     		push	{r3, lr}
 569              		.cfi_def_cfa_offset 8
 570              		.cfi_offset 3, -8
 571              		.cfi_offset 14, -4
 572              	.LVL68:
 583:.\Generated_Source\PSoC5/LCD_SegStatic_1.c ****     {
 573              		.loc 1 583 0
 574 0002 0023     		movs	r3, #0
 575 0004 0AE0     		b	.L56
 576              	.LVL69:
 577              	.L59:
 585:.\Generated_Source\PSoC5/LCD_SegStatic_1.c ****         {
 578              		.loc 1 585 0
 579 0006 0F2B     		cmp	r3, #15
 580 0008 03D8     		bhi	.L57
 588:.\Generated_Source\PSoC5/LCD_SegStatic_1.c ****         }
 581              		.loc 1 588 0
 582 000a 0021     		movs	r1, #0
 583 000c 074A     		ldr	r2, .L61
 584 000e D154     		strb	r1, [r2, r3]
 585 0010 02E0     		b	.L58
 586              	.L57:
 593:.\Generated_Source\PSoC5/LCD_SegStatic_1.c ****         }
 587              		.loc 1 593 0
 588 0012 FF21     		movs	r1, #255
 589 0014 054A     		ldr	r2, .L61
 590 0016 D154     		strb	r1, [r2, r3]
ARM GAS  C:\Users\addis\AppData\Local\Temp\ccUS9kEI.s 			page 25


 591              	.L58:
 583:.\Generated_Source\PSoC5/LCD_SegStatic_1.c ****     {
 592              		.loc 1 583 0 discriminator 2
 593 0018 0133     		adds	r3, r3, #1
 594              	.LVL70:
 595 001a 9BB2     		uxth	r3, r3
 596              	.LVL71:
 597              	.L56:
 583:.\Generated_Source\PSoC5/LCD_SegStatic_1.c ****     {
 598              		.loc 1 583 0 is_stmt 0 discriminator 1
 599 001c 1F2B     		cmp	r3, #31
 600 001e F2D9     		bls	.L59
 598:.\Generated_Source\PSoC5/LCD_SegStatic_1.c **** }
 601              		.loc 1 598 0 is_stmt 1
 602 0020 0320     		movs	r0, #3
 603 0022 0021     		movs	r1, #0
 604 0024 FFF7FEFF 		bl	LCD_SegStatic_1_WritePixel
 605              	.LVL72:
 606 0028 08BD     		pop	{r3, pc}
 607              	.L62:
 608 002a 00BF     		.align	2
 609              	.L61:
 610 002c 00000000 		.word	.LANCHOR0
 611              		.cfi_endproc
 612              	.LFE8:
 613              		.size	LCD_SegStatic_1_ClearDisplay, .-LCD_SegStatic_1_ClearDisplay
 614              		.section	.text.LCD_SegStatic_1_Init,"ax",%progbits
 615              		.align	2
 616              		.global	LCD_SegStatic_1_Init
 617              		.thumb
 618              		.thumb_func
 619              		.type	LCD_SegStatic_1_Init, %function
 620              	LCD_SegStatic_1_Init:
 621              	.LFB0:
 200:.\Generated_Source\PSoC5/LCD_SegStatic_1.c ****     LCD_SegStatic_1_ClearDisplay();
 622              		.loc 1 200 0
 623              		.cfi_startproc
 624              		@ args = 0, pretend = 0, frame = 0
 625              		@ frame_needed = 0, uses_anonymous_args = 0
 626 0000 08B5     		push	{r3, lr}
 627              		.cfi_def_cfa_offset 8
 628              		.cfi_offset 3, -8
 629              		.cfi_offset 14, -4
 201:.\Generated_Source\PSoC5/LCD_SegStatic_1.c **** 
 630              		.loc 1 201 0
 631 0002 FFF7FEFF 		bl	LCD_SegStatic_1_ClearDisplay
 632              	.LVL73:
 204:.\Generated_Source\PSoC5/LCD_SegStatic_1.c **** 
 633              		.loc 1 204 0
 634 0006 0122     		movs	r2, #1
 635 0008 054B     		ldr	r3, .L65
 636 000a 1A60     		str	r2, [r3]
 207:.\Generated_Source\PSoC5/LCD_SegStatic_1.c **** 
 637              		.loc 1 207 0
 638 000c 0020     		movs	r0, #0
 639 000e 0549     		ldr	r1, .L65+4
 640 0010 FFF7FEFF 		bl	CyIntSetVector
ARM GAS  C:\Users\addis\AppData\Local\Temp\ccUS9kEI.s 			page 26


 641              	.LVL74:
 210:.\Generated_Source\PSoC5/LCD_SegStatic_1.c **** }
 642              		.loc 1 210 0
 643 0014 0020     		movs	r0, #0
 644 0016 0721     		movs	r1, #7
 645 0018 FFF7FEFF 		bl	CyIntSetPriority
 646              	.LVL75:
 647 001c 08BD     		pop	{r3, pc}
 648              	.L66:
 649 001e 00BF     		.align	2
 650              	.L65:
 651 0020 80E100E0 		.word	-536813184
 652 0024 00000000 		.word	LCD_SegStatic_1_ISR
 653              		.cfi_endproc
 654              	.LFE0:
 655              		.size	LCD_SegStatic_1_Init, .-LCD_SegStatic_1_Init
 656              		.section	.text.LCD_SegStatic_1_Start,"ax",%progbits
 657              		.align	2
 658              		.global	LCD_SegStatic_1_Start
 659              		.thumb
 660              		.thumb_func
 661              		.type	LCD_SegStatic_1_Start, %function
 662              	LCD_SegStatic_1_Start:
 663              	.LFB4:
 463:.\Generated_Source\PSoC5/LCD_SegStatic_1.c ****     uint8 status;
 664              		.loc 1 463 0
 665              		.cfi_startproc
 666              		@ args = 0, pretend = 0, frame = 0
 667              		@ frame_needed = 0, uses_anonymous_args = 0
 668 0000 08B5     		push	{r3, lr}
 669              		.cfi_def_cfa_offset 8
 670              		.cfi_offset 3, -8
 671              		.cfi_offset 14, -4
 467:.\Generated_Source\PSoC5/LCD_SegStatic_1.c ****     {
 672              		.loc 1 467 0
 673 0002 064B     		ldr	r3, .L70
 674 0004 93F82730 		ldrb	r3, [r3, #39]	@ zero_extendqisi2
 675 0008 2BB9     		cbnz	r3, .L68
 469:.\Generated_Source\PSoC5/LCD_SegStatic_1.c ****         LCD_SegStatic_1_Init();
 676              		.loc 1 469 0
 677 000a 0122     		movs	r2, #1
 678 000c 034B     		ldr	r3, .L70
 679 000e 83F82720 		strb	r2, [r3, #39]
 470:.\Generated_Source\PSoC5/LCD_SegStatic_1.c ****     }
 680              		.loc 1 470 0
 681 0012 FFF7FEFF 		bl	LCD_SegStatic_1_Init
 682              	.LVL76:
 683              	.L68:
 473:.\Generated_Source\PSoC5/LCD_SegStatic_1.c **** 
 684              		.loc 1 473 0
 685 0016 FFF7FEFF 		bl	LCD_SegStatic_1_Enable
 686              	.LVL77:
 476:.\Generated_Source\PSoC5/LCD_SegStatic_1.c **** 
 687              		.loc 1 476 0
 688 001a 08BD     		pop	{r3, pc}
 689              	.L71:
 690              		.align	2
ARM GAS  C:\Users\addis\AppData\Local\Temp\ccUS9kEI.s 			page 27


 691              	.L70:
 692 001c 00000000 		.word	.LANCHOR0
 693              		.cfi_endproc
 694              	.LFE4:
 695              		.size	LCD_SegStatic_1_Start, .-LCD_SegStatic_1_Start
 696              		.section	.text.LCD_SegStatic_1_WriteInvertState,"ax",%progbits
 697              		.align	2
 698              		.global	LCD_SegStatic_1_WriteInvertState
 699              		.thumb
 700              		.thumb_func
 701              		.type	LCD_SegStatic_1_WriteInvertState, %function
 702              	LCD_SegStatic_1_WriteInvertState:
 703              	.LFB11:
 737:.\Generated_Source\PSoC5/LCD_SegStatic_1.c **** 
 738:.\Generated_Source\PSoC5/LCD_SegStatic_1.c **** 
 739:.\Generated_Source\PSoC5/LCD_SegStatic_1.c **** /*******************************************************************************
 740:.\Generated_Source\PSoC5/LCD_SegStatic_1.c **** * Function Name: LCD_SegStatic_1_WriteInvertState
 741:.\Generated_Source\PSoC5/LCD_SegStatic_1.c **** ********************************************************************************
 742:.\Generated_Source\PSoC5/LCD_SegStatic_1.c **** *
 743:.\Generated_Source\PSoC5/LCD_SegStatic_1.c **** * Summary:
 744:.\Generated_Source\PSoC5/LCD_SegStatic_1.c **** *  This function inverts the display based on invertState.
 745:.\Generated_Source\PSoC5/LCD_SegStatic_1.c **** *
 746:.\Generated_Source\PSoC5/LCD_SegStatic_1.c **** * Parameters:
 747:.\Generated_Source\PSoC5/LCD_SegStatic_1.c **** *  invertState: the values can be - 0 (#LCD_SegStatic_1_NORMAL_STATE) for
 748:.\Generated_Source\PSoC5/LCD_SegStatic_1.c **** *               normal noninverted display and 1
 749:.\Generated_Source\PSoC5/LCD_SegStatic_1.c **** *                (#LCD_SegStatic_1_INVERTED_STATE) for inverted display.
 750:.\Generated_Source\PSoC5/LCD_SegStatic_1.c **** *
 751:.\Generated_Source\PSoC5/LCD_SegStatic_1.c **** * Return:
 752:.\Generated_Source\PSoC5/LCD_SegStatic_1.c **** *  One of standard status for PSoC3 Component:
 753:.\Generated_Source\PSoC5/LCD_SegStatic_1.c **** *      CYRET_SUCCESS - function completed successfully.
 754:.\Generated_Source\PSoC5/LCD_SegStatic_1.c **** *      CYRET_BAD_PARAM - evaluation of invertState parameter is failed.
 755:.\Generated_Source\PSoC5/LCD_SegStatic_1.c **** *
 756:.\Generated_Source\PSoC5/LCD_SegStatic_1.c **** *******************************************************************************/
 757:.\Generated_Source\PSoC5/LCD_SegStatic_1.c **** uint8 LCD_SegStatic_1_WriteInvertState(uint8 invertState) 
 758:.\Generated_Source\PSoC5/LCD_SegStatic_1.c **** {
 704              		.loc 1 758 0
 705              		.cfi_startproc
 706              		@ args = 0, pretend = 0, frame = 0
 707              		@ frame_needed = 0, uses_anonymous_args = 0
 708              	.LVL78:
 759:.\Generated_Source\PSoC5/LCD_SegStatic_1.c ****     uint8 status;
 760:.\Generated_Source\PSoC5/LCD_SegStatic_1.c **** 
 761:.\Generated_Source\PSoC5/LCD_SegStatic_1.c ****     /* Check if inverstState parameter is valid */
 762:.\Generated_Source\PSoC5/LCD_SegStatic_1.c ****     if(invertState <= LCD_SegStatic_1_INVERTED_STATE)
 709              		.loc 1 762 0
 710 0000 0128     		cmp	r0, #1
 711 0002 0DD8     		bhi	.L75
 758:.\Generated_Source\PSoC5/LCD_SegStatic_1.c ****     uint8 status;
 712              		.loc 1 758 0
 713 0004 08B5     		push	{r3, lr}
 714              		.cfi_def_cfa_offset 8
 715              		.cfi_offset 3, -8
 716              		.cfi_offset 14, -4
 763:.\Generated_Source\PSoC5/LCD_SegStatic_1.c ****     {
 764:.\Generated_Source\PSoC5/LCD_SegStatic_1.c ****         /* If the staate is "Invert" then then set pixel - com0 to "1", otherwise
 765:.\Generated_Source\PSoC5/LCD_SegStatic_1.c ****         * set it to "0".
 766:.\Generated_Source\PSoC5/LCD_SegStatic_1.c ****         */
ARM GAS  C:\Users\addis\AppData\Local\Temp\ccUS9kEI.s 			page 28


 767:.\Generated_Source\PSoC5/LCD_SegStatic_1.c ****         if(LCD_SegStatic_1_INVERTED_STATE == invertState)
 717              		.loc 1 767 0
 718 0006 05D1     		bne	.L74
 768:.\Generated_Source\PSoC5/LCD_SegStatic_1.c ****         {
 769:.\Generated_Source\PSoC5/LCD_SegStatic_1.c ****             LCD_SegStatic_1_WRITE_PIXEL(LCD_SegStatic_1_commons[0u], LCD_SegStatic_1_PIXEL_STATE_ON
 719              		.loc 1 769 0
 720 0008 0320     		movs	r0, #3
 721              	.LVL79:
 722 000a 0121     		movs	r1, #1
 723 000c FFF7FEFF 		bl	LCD_SegStatic_1_WritePixel
 724              	.LVL80:
 770:.\Generated_Source\PSoC5/LCD_SegStatic_1.c ****         }
 771:.\Generated_Source\PSoC5/LCD_SegStatic_1.c ****         else
 772:.\Generated_Source\PSoC5/LCD_SegStatic_1.c ****         {
 773:.\Generated_Source\PSoC5/LCD_SegStatic_1.c ****             LCD_SegStatic_1_WRITE_PIXEL(LCD_SegStatic_1_commons[0u], LCD_SegStatic_1_PIXEL_STATE_OF
 774:.\Generated_Source\PSoC5/LCD_SegStatic_1.c ****         }
 775:.\Generated_Source\PSoC5/LCD_SegStatic_1.c **** 
 776:.\Generated_Source\PSoC5/LCD_SegStatic_1.c ****         status = CYRET_SUCCESS;
 725              		.loc 1 776 0
 726 0010 0020     		movs	r0, #0
 727 0012 08BD     		pop	{r3, pc}
 728              	.LVL81:
 729              	.L74:
 773:.\Generated_Source\PSoC5/LCD_SegStatic_1.c ****         }
 730              		.loc 1 773 0
 731 0014 0320     		movs	r0, #3
 732              	.LVL82:
 733 0016 0021     		movs	r1, #0
 734 0018 FFF7FEFF 		bl	LCD_SegStatic_1_WritePixel
 735              	.LVL83:
 736              		.loc 1 776 0
 737 001c 0020     		movs	r0, #0
 738 001e 08BD     		pop	{r3, pc}
 739              	.LVL84:
 740              	.L75:
 741              		.cfi_def_cfa_offset 0
 742              		.cfi_restore 3
 743              		.cfi_restore 14
 777:.\Generated_Source\PSoC5/LCD_SegStatic_1.c ****     }
 778:.\Generated_Source\PSoC5/LCD_SegStatic_1.c ****     else
 779:.\Generated_Source\PSoC5/LCD_SegStatic_1.c ****     {
 780:.\Generated_Source\PSoC5/LCD_SegStatic_1.c ****         status = CYRET_BAD_PARAM;
 744              		.loc 1 780 0
 745 0020 0120     		movs	r0, #1
 746              	.LVL85:
 747 0022 7047     		bx	lr
 748              		.cfi_endproc
 749              	.LFE11:
 750              		.size	LCD_SegStatic_1_WriteInvertState, .-LCD_SegStatic_1_WriteInvertState
 751              		.section	.text.LCD_SegStatic_1_ReadInvertState,"ax",%progbits
 752              		.align	2
 753              		.global	LCD_SegStatic_1_ReadInvertState
 754              		.thumb
 755              		.thumb_func
 756              		.type	LCD_SegStatic_1_ReadInvertState, %function
 757              	LCD_SegStatic_1_ReadInvertState:
 758              	.LFB12:
ARM GAS  C:\Users\addis\AppData\Local\Temp\ccUS9kEI.s 			page 29


 781:.\Generated_Source\PSoC5/LCD_SegStatic_1.c ****     }
 782:.\Generated_Source\PSoC5/LCD_SegStatic_1.c **** 
 783:.\Generated_Source\PSoC5/LCD_SegStatic_1.c ****     return(status);
 784:.\Generated_Source\PSoC5/LCD_SegStatic_1.c **** }
 785:.\Generated_Source\PSoC5/LCD_SegStatic_1.c **** 
 786:.\Generated_Source\PSoC5/LCD_SegStatic_1.c **** 
 787:.\Generated_Source\PSoC5/LCD_SegStatic_1.c **** /*******************************************************************************
 788:.\Generated_Source\PSoC5/LCD_SegStatic_1.c **** * Function Name: LCD_SegStatic_1_ReadInvertState
 789:.\Generated_Source\PSoC5/LCD_SegStatic_1.c **** ********************************************************************************
 790:.\Generated_Source\PSoC5/LCD_SegStatic_1.c **** *
 791:.\Generated_Source\PSoC5/LCD_SegStatic_1.c **** * Summary:
 792:.\Generated_Source\PSoC5/LCD_SegStatic_1.c **** *  This function returns the current state of the display, possible states are
 793:.\Generated_Source\PSoC5/LCD_SegStatic_1.c **** *  normal and inverted.
 794:.\Generated_Source\PSoC5/LCD_SegStatic_1.c **** *
 795:.\Generated_Source\PSoC5/LCD_SegStatic_1.c **** * Parameters:
 796:.\Generated_Source\PSoC5/LCD_SegStatic_1.c **** *  None.
 797:.\Generated_Source\PSoC5/LCD_SegStatic_1.c **** *
 798:.\Generated_Source\PSoC5/LCD_SegStatic_1.c **** * Return:
 799:.\Generated_Source\PSoC5/LCD_SegStatic_1.c **** *  LCD_SegStatic_1_NORMAL_STATE (0) - for normal non-inverted display.
 800:.\Generated_Source\PSoC5/LCD_SegStatic_1.c **** *  LCD_SegStatic_1_INVERTED_STATE (1) -  for inverted display.
 801:.\Generated_Source\PSoC5/LCD_SegStatic_1.c **** *
 802:.\Generated_Source\PSoC5/LCD_SegStatic_1.c **** *******************************************************************************/
 803:.\Generated_Source\PSoC5/LCD_SegStatic_1.c **** uint8 LCD_SegStatic_1_ReadInvertState(void) 
 804:.\Generated_Source\PSoC5/LCD_SegStatic_1.c **** {
 759              		.loc 1 804 0
 760              		.cfi_startproc
 761              		@ args = 0, pretend = 0, frame = 0
 762              		@ frame_needed = 0, uses_anonymous_args = 0
 763 0000 08B5     		push	{r3, lr}
 764              		.cfi_def_cfa_offset 8
 765              		.cfi_offset 3, -8
 766              		.cfi_offset 14, -4
 767              	.LVL86:
 805:.\Generated_Source\PSoC5/LCD_SegStatic_1.c ****     uint8 state = LCD_SegStatic_1_INVERTED_STATE;
 806:.\Generated_Source\PSoC5/LCD_SegStatic_1.c **** 
 807:.\Generated_Source\PSoC5/LCD_SegStatic_1.c ****     /* Get only invert bit of Driver Control Register */
 808:.\Generated_Source\PSoC5/LCD_SegStatic_1.c ****     if(LCD_SegStatic_1_PIXEL_STATE_OFF == LCD_SegStatic_1_ReadPixel(LCD_SegStatic_1_commons[0u]))
 768              		.loc 1 808 0
 769 0002 0320     		movs	r0, #3
 770 0004 FFF7FEFF 		bl	LCD_SegStatic_1_ReadPixel
 771              	.LVL87:
 772 0008 08B1     		cbz	r0, .L80
 805:.\Generated_Source\PSoC5/LCD_SegStatic_1.c ****     uint8 state = LCD_SegStatic_1_INVERTED_STATE;
 773              		.loc 1 805 0
 774 000a 0120     		movs	r0, #1
 775 000c 08BD     		pop	{r3, pc}
 776              	.L80:
 809:.\Generated_Source\PSoC5/LCD_SegStatic_1.c ****     {
 810:.\Generated_Source\PSoC5/LCD_SegStatic_1.c ****         state = LCD_SegStatic_1_NORMAL_STATE;
 777              		.loc 1 810 0
 778 000e 0020     		movs	r0, #0
 779              	.LVL88:
 811:.\Generated_Source\PSoC5/LCD_SegStatic_1.c ****     }
 812:.\Generated_Source\PSoC5/LCD_SegStatic_1.c **** 
 813:.\Generated_Source\PSoC5/LCD_SegStatic_1.c ****     return(state);
 814:.\Generated_Source\PSoC5/LCD_SegStatic_1.c **** }
 780              		.loc 1 814 0
ARM GAS  C:\Users\addis\AppData\Local\Temp\ccUS9kEI.s 			page 30


 781 0010 08BD     		pop	{r3, pc}
 782              		.cfi_endproc
 783              	.LFE12:
 784              		.size	LCD_SegStatic_1_ReadInvertState, .-LCD_SegStatic_1_ReadInvertState
 785              		.global	LCD_SegStatic_1_enableState
 786              		.global	LCD_SegStatic_1_initVar
 787 0012 00BF     		.section	.rodata
 788              		.align	2
 789              		.set	.LANCHOR1,. + 0
 790              		.type	LCD_SegStatic_1_StSegLcdPort_DMA_TD_PROTO_BLOCK.5019, %object
 791              		.size	LCD_SegStatic_1_StSegLcdPort_DMA_TD_PROTO_BLOCK.5019, 2
 792              	LCD_SegStatic_1_StSegLcdPort_DMA_TD_PROTO_BLOCK.5019:
 793 0000 00       		.byte	0
 794 0001 01       		.byte	1
 795 0002 0000     		.bss
 796              		.align	2
 797              		.set	.LANCHOR0,. + 0
 798              		.type	LCD_SegStatic_1_buffer, %object
 799              		.size	LCD_SegStatic_1_buffer, 32
 800              	LCD_SegStatic_1_buffer:
 801 0000 00000000 		.space	32
 801      00000000 
 801      00000000 
 801      00000000 
 801      00000000 
 802              		.type	LCD_SegStatic_1_lcdChannel, %object
 803              		.size	LCD_SegStatic_1_lcdChannel, 1
 804              	LCD_SegStatic_1_lcdChannel:
 805 0020 00       		.space	1
 806 0021 000000   		.space	3
 807              		.type	LCD_SegStatic_1_lcdTd, %object
 808              		.size	LCD_SegStatic_1_lcdTd, 2
 809              	LCD_SegStatic_1_lcdTd:
 810 0024 0000     		.space	2
 811              		.type	LCD_SegStatic_1_enableState, %object
 812              		.size	LCD_SegStatic_1_enableState, 1
 813              	LCD_SegStatic_1_enableState:
 814 0026 00       		.space	1
 815              		.type	LCD_SegStatic_1_initVar, %object
 816              		.size	LCD_SegStatic_1_initVar, 1
 817              	LCD_SegStatic_1_initVar:
 818 0027 00       		.space	1
 819              		.text
 820              	.Letext0:
 821              		.file 2 ".\\Generated_Source\\PSoC5\\cytypes.h"
 822              		.file 3 ".\\Generated_Source\\PSoC5\\LCD_SegStatic_1.h"
 823              		.file 4 "Generated_Source\\PSoC5/LCD_SegStatic_1_Lcd_Dma_dma.h"
 824              		.file 5 "Generated_Source\\PSoC5/CYDMAC.H"
 825              		.file 6 "Generated_Source\\PSoC5/LCD_SegStatic_1_InClock.h"
 826              		.file 7 "Generated_Source\\PSoC5/CyLib.h"