ARM GAS  C:\Users\addis\AppData\Local\Temp\ccSWavHF.s 			page 1


   1              		.syntax unified
   2              		.cpu cortex-m3
   3              		.fpu softvfp
   4              		.eabi_attribute 20, 1
   5              		.eabi_attribute 21, 1
   6              		.eabi_attribute 23, 3
   7              		.eabi_attribute 24, 1
   8              		.eabi_attribute 25, 1
   9              		.eabi_attribute 26, 1
  10              		.eabi_attribute 30, 1
  11              		.eabi_attribute 34, 1
  12              		.eabi_attribute 18, 4
  13              		.thumb
  14              		.file	"PS2.c"
  15              		.text
  16              	.Ltext0:
  17              		.cfi_sections	.debug_frame
  18              		.section	.text.PS2_TIMER,"ax",%progbits
  19              		.align	2
  20              		.global	PS2_TIMER
  21              		.thumb
  22              		.thumb_func
  23              		.type	PS2_TIMER, %function
  24              	PS2_TIMER:
  25              	.LFB0:
  26              		.file 1 ".\\Generated_Source\\PSoC5\\PS2.c"
   1:.\Generated_Source\PSoC5/PS2.c **** /* ========================================
   2:.\Generated_Source\PSoC5/PS2.c ****  *
   3:.\Generated_Source\PSoC5/PS2.c ****  * Copyright Addison Elliott, 2016
   4:.\Generated_Source\PSoC5/PS2.c ****  * All Rights Reserved
   5:.\Generated_Source\PSoC5/PS2.c ****  * UNPUBLISHED, LICENSED SOFTWARE.
   6:.\Generated_Source\PSoC5/PS2.c ****  *
   7:.\Generated_Source\PSoC5/PS2.c ****  * CONFIDENTIAL AND PROPRIETARY INFORMATION
   8:.\Generated_Source\PSoC5/PS2.c ****  * WHICH IS THE PROPERTY OF your company.
   9:.\Generated_Source\PSoC5/PS2.c ****  *
  10:.\Generated_Source\PSoC5/PS2.c ****  * ========================================
  11:.\Generated_Source\PSoC5/PS2.c **** */
  12:.\Generated_Source\PSoC5/PS2.c **** 
  13:.\Generated_Source\PSoC5/PS2.c **** #include "PS2.h"
  14:.\Generated_Source\PSoC5/PS2.c **** 
  15:.\Generated_Source\PSoC5/PS2.c **** uint16 PS2_timer_reps;
  16:.\Generated_Source\PSoC5/PS2.c **** uint8 PS2_initVar;
  17:.\Generated_Source\PSoC5/PS2.c **** uint8 PS2_deviceDetectFail;
  18:.\Generated_Source\PSoC5/PS2.c **** 
  19:.\Generated_Source\PSoC5/PS2.c **** CY_ISR(PS2_TIMER)
  20:.\Generated_Source\PSoC5/PS2.c **** {
  27              		.loc 1 20 0
  28              		.cfi_startproc
  29              		@ args = 0, pretend = 0, frame = 0
  30              		@ frame_needed = 0, uses_anonymous_args = 0
  31              		@ link register save eliminated.
  21:.\Generated_Source\PSoC5/PS2.c **** 	// Resets the terminal count bit, it is sticky so it stays high even after the counter is reloaded
  22:.\Generated_Source\PSoC5/PS2.c **** 	PS2_Timer_STATUS;
  32              		.loc 1 22 0
  33 0000 034B     		ldr	r3, .L2
  34 0002 1B78     		ldrb	r3, [r3]	@ zero_extendqisi2
  23:.\Generated_Source\PSoC5/PS2.c **** 
ARM GAS  C:\Users\addis\AppData\Local\Temp\ccSWavHF.s 			page 2


  24:.\Generated_Source\PSoC5/PS2.c **** 	--PS2_timer_reps;
  35              		.loc 1 24 0
  36 0004 034A     		ldr	r2, .L2+4
  37 0006 1388     		ldrh	r3, [r2]
  38 0008 013B     		subs	r3, r3, #1
  39 000a 1380     		strh	r3, [r2]	@ movhi
  40 000c 7047     		bx	lr
  41              	.L3:
  42 000e 00BF     		.align	2
  43              	.L2:
  44 0010 68640040 		.word	1073767528
  45 0014 00000000 		.word	PS2_timer_reps
  46              		.cfi_endproc
  47              	.LFE0:
  48              		.size	PS2_TIMER, .-PS2_TIMER
  49              		.section	.text.PS2_Init,"ax",%progbits
  50              		.align	2
  51              		.global	PS2_Init
  52              		.thumb
  53              		.thumb_func
  54              		.type	PS2_Init, %function
  55              	PS2_Init:
  56              	.LFB1:
  25:.\Generated_Source\PSoC5/PS2.c **** }
  26:.\Generated_Source\PSoC5/PS2.c **** 
  27:.\Generated_Source\PSoC5/PS2.c **** void PS2_Init(void) 
  28:.\Generated_Source\PSoC5/PS2.c **** {
  57              		.loc 1 28 0
  58              		.cfi_startproc
  59              		@ args = 0, pretend = 0, frame = 0
  60              		@ frame_needed = 0, uses_anonymous_args = 0
  61 0000 08B5     		push	{r3, lr}
  62              		.cfi_def_cfa_offset 8
  63              		.cfi_offset 3, -8
  64              		.cfi_offset 14, -4
  29:.\Generated_Source\PSoC5/PS2.c ****     PS2_timer_reps = 0; // Set number of repetitions to 0
  65              		.loc 1 29 0
  66 0002 0023     		movs	r3, #0
  67 0004 164A     		ldr	r2, .L6
  68 0006 1380     		strh	r3, [r2]	@ movhi
  30:.\Generated_Source\PSoC5/PS2.c ****     PS2_deviceDetectFail = 0; // Set device detect failed to 0
  69              		.loc 1 30 0
  70 0008 164A     		ldr	r2, .L6+4
  71 000a 1370     		strb	r3, [r2]
  31:.\Generated_Source\PSoC5/PS2.c ****     PS2_Timer_ISR_StartEx(PS2_TIMER); // Setup ISR for the interrupt
  72              		.loc 1 31 0
  73 000c 1648     		ldr	r0, .L6+8
  74 000e FFF7FEFF 		bl	PS2_Timer_ISR_StartEx
  75              	.LVL0:
  32:.\Generated_Source\PSoC5/PS2.c **** 	PS2_Timer_Start();
  76              		.loc 1 32 0
  77 0012 FFF7FEFF 		bl	PS2_Timer_Start
  78              	.LVL1:
  33:.\Generated_Source\PSoC5/PS2.c **** 	PS2_Timer_Stop(); // Start and stop the timer to initialize registers
  79              		.loc 1 33 0
  80 0016 FFF7FEFF 		bl	PS2_Timer_Stop
  81              	.LVL2:
ARM GAS  C:\Users\addis\AppData\Local\Temp\ccSWavHF.s 			page 3


  34:.\Generated_Source\PSoC5/PS2.c ****     
  35:.\Generated_Source\PSoC5/PS2.c ****     PS2_RESET; // Initializes the PS2_Core state machine registers
  82              		.loc 1 35 0
  83 001a FFF7FEFF 		bl	PS2_controlReg_Read
  84              	.LVL3:
  85 001e 40F00200 		orr	r0, r0, #2
  86 0022 C0B2     		uxtb	r0, r0
  87 0024 FFF7FEFF 		bl	PS2_controlReg_Write
  88              	.LVL4:
  89 0028 FFF7FEFF 		bl	PS2_controlReg_Read
  90              	.LVL5:
  91 002c 00F0FD00 		and	r0, r0, #253
  92 0030 FFF7FEFF 		bl	PS2_controlReg_Write
  93              	.LVL6:
  36:.\Generated_Source\PSoC5/PS2.c **** 	PS2_DATA_CTRL_SW; // Sets ps2_data line to software mode
  94              		.loc 1 36 0
  95 0034 FFF7FEFF 		bl	PS2_controlReg_Read
  96              	.LVL7:
  97 0038 00F0EF00 		and	r0, r0, #239
  98 003c FFF7FEFF 		bl	PS2_controlReg_Write
  99              	.LVL8:
  37:.\Generated_Source\PSoC5/PS2.c **** 	PS2_DATA_HIGH; // Sets ps2_data software line to 1
 100              		.loc 1 37 0
 101 0040 FFF7FEFF 		bl	PS2_controlReg_Read
 102              	.LVL9:
 103 0044 40F00400 		orr	r0, r0, #4
 104 0048 C0B2     		uxtb	r0, r0
 105 004a FFF7FEFF 		bl	PS2_controlReg_Write
 106              	.LVL10:
  38:.\Generated_Source\PSoC5/PS2.c **** 	PS2_CLOCK_HIGH; // Sets ps2_clock to 1
 107              		.loc 1 38 0
 108 004e FFF7FEFF 		bl	PS2_controlReg_Read
 109              	.LVL11:
 110 0052 40F00800 		orr	r0, r0, #8
 111 0056 C0B2     		uxtb	r0, r0
 112 0058 FFF7FEFF 		bl	PS2_controlReg_Write
 113              	.LVL12:
 114 005c 08BD     		pop	{r3, pc}
 115              	.L7:
 116 005e 00BF     		.align	2
 117              	.L6:
 118 0060 00000000 		.word	PS2_timer_reps
 119 0064 00000000 		.word	PS2_deviceDetectFail
 120 0068 00000000 		.word	PS2_TIMER
 121              		.cfi_endproc
 122              	.LFE1:
 123              		.size	PS2_Init, .-PS2_Init
 124              		.section	.text.PS2_Start,"ax",%progbits
 125              		.align	2
 126              		.global	PS2_Start
 127              		.thumb
 128              		.thumb_func
 129              		.type	PS2_Start, %function
 130              	PS2_Start:
 131              	.LFB2:
  39:.\Generated_Source\PSoC5/PS2.c **** }
  40:.\Generated_Source\PSoC5/PS2.c **** 
ARM GAS  C:\Users\addis\AppData\Local\Temp\ccSWavHF.s 			page 4


  41:.\Generated_Source\PSoC5/PS2.c **** void PS2_Start(void) 
  42:.\Generated_Source\PSoC5/PS2.c **** {
 132              		.loc 1 42 0
 133              		.cfi_startproc
 134              		@ args = 0, pretend = 0, frame = 0
 135              		@ frame_needed = 0, uses_anonymous_args = 0
 136 0000 08B5     		push	{r3, lr}
 137              		.cfi_def_cfa_offset 8
 138              		.cfi_offset 3, -8
 139              		.cfi_offset 14, -4
  43:.\Generated_Source\PSoC5/PS2.c ****     if (0u == PS2_initVar)
 140              		.loc 1 43 0
 141 0002 044B     		ldr	r3, .L11
 142 0004 1B78     		ldrb	r3, [r3]	@ zero_extendqisi2
 143 0006 23B9     		cbnz	r3, .L8
  44:.\Generated_Source\PSoC5/PS2.c ****     {
  45:.\Generated_Source\PSoC5/PS2.c ****         PS2_Init();
 144              		.loc 1 45 0
 145 0008 FFF7FEFF 		bl	PS2_Init
 146              	.LVL13:
  46:.\Generated_Source\PSoC5/PS2.c ****         PS2_initVar = 1u; // Component initialized
 147              		.loc 1 46 0
 148 000c 0122     		movs	r2, #1
 149 000e 014B     		ldr	r3, .L11
 150 0010 1A70     		strb	r2, [r3]
 151              	.L8:
 152 0012 08BD     		pop	{r3, pc}
 153              	.L12:
 154              		.align	2
 155              	.L11:
 156 0014 00000000 		.word	PS2_initVar
 157              		.cfi_endproc
 158              	.LFE2:
 159              		.size	PS2_Start, .-PS2_Start
 160              		.section	.text.PS2_WriteByte,"ax",%progbits
 161              		.align	2
 162              		.global	PS2_WriteByte
 163              		.thumb
 164              		.thumb_func
 165              		.type	PS2_WriteByte, %function
 166              	PS2_WriteByte:
 167              	.LFB4:
  47:.\Generated_Source\PSoC5/PS2.c ****     }
  48:.\Generated_Source\PSoC5/PS2.c **** }
  49:.\Generated_Source\PSoC5/PS2.c **** 
  50:.\Generated_Source\PSoC5/PS2.c **** uint8 PS2_DetectDevice(void) 
  51:.\Generated_Source\PSoC5/PS2.c **** {
  52:.\Generated_Source\PSoC5/PS2.c ****     uint8 status;
  53:.\Generated_Source\PSoC5/PS2.c **** 	
  54:.\Generated_Source\PSoC5/PS2.c **** 	// If the previous device detect did not return a BAT code, send a reset command
  55:.\Generated_Source\PSoC5/PS2.c **** 	// This is to notify the device to stop doing everything, and send a BAT test
  56:.\Generated_Source\PSoC5/PS2.c ****     if (PS2_deviceDetectFail)
  57:.\Generated_Source\PSoC5/PS2.c **** 		PS2_SendCommand(0xFF);
  58:.\Generated_Source\PSoC5/PS2.c **** 		
  59:.\Generated_Source\PSoC5/PS2.c ****     PS2_READ; // Make sure the state machine knows to read
  60:.\Generated_Source\PSoC5/PS2.c **** 
  61:.\Generated_Source\PSoC5/PS2.c **** 	PS2_TIMER_WAIT_UNTIL(200, 500, PS2_STATUS == PS2_STATUS_PENDING);
ARM GAS  C:\Users\addis\AppData\Local\Temp\ccSWavHF.s 			page 5


  62:.\Generated_Source\PSoC5/PS2.c **** 	if (PS2_STATUS == PS2_STATUS_DONE)
  63:.\Generated_Source\PSoC5/PS2.c ****     {
  64:.\Generated_Source\PSoC5/PS2.c ****         //CyDelay(1); // Delay one millisecond to give the status register time to update
  65:.\Generated_Source\PSoC5/PS2.c ****         if (PS2_BYTE_R == 0xAA)
  66:.\Generated_Source\PSoC5/PS2.c ****         {
  67:.\Generated_Source\PSoC5/PS2.c ****             // XXX: Mess with getting mouse to work with PS/2
  68:.\Generated_Source\PSoC5/PS2.c ****             status = PS2_SUCCESS;
  69:.\Generated_Source\PSoC5/PS2.c ****         }
  70:.\Generated_Source\PSoC5/PS2.c ****         else
  71:.\Generated_Source\PSoC5/PS2.c ****             status = PS2_BAD_BAT;
  72:.\Generated_Source\PSoC5/PS2.c **** 
  73:.\Generated_Source\PSoC5/PS2.c ****         PS2_deviceDetectFail = 0; // No need to reset, the BAT code was received correctly
  74:.\Generated_Source\PSoC5/PS2.c ****     }
  75:.\Generated_Source\PSoC5/PS2.c ****     else if (PS2_STATUS == PS2_STATUS_ERROR)
  76:.\Generated_Source\PSoC5/PS2.c ****     {
  77:.\Generated_Source\PSoC5/PS2.c ****         PS2_deviceDetectFail = 1; // If there was a transmission error, send reset command next fun
  78:.\Generated_Source\PSoC5/PS2.c ****         status = PS2_ERROR;
  79:.\Generated_Source\PSoC5/PS2.c ****     }
  80:.\Generated_Source\PSoC5/PS2.c ****     else
  81:.\Generated_Source\PSoC5/PS2.c ****     {
  82:.\Generated_Source\PSoC5/PS2.c ****         PS2_deviceDetectFail = 1; // If there was a timeout, send reset command next function call
  83:.\Generated_Source\PSoC5/PS2.c ****         status = PS2_TIMEOUT;
  84:.\Generated_Source\PSoC5/PS2.c ****     }
  85:.\Generated_Source\PSoC5/PS2.c ****     
  86:.\Generated_Source\PSoC5/PS2.c ****     // The state machine needs to be reset everytime it sends or receives something. Yes, this coul
  87:.\Generated_Source\PSoC5/PS2.c ****     // but there is not enough UDBs for it. Adding another if statement makes it break
  88:.\Generated_Source\PSoC5/PS2.c ****     PS2_RESET;
  89:.\Generated_Source\PSoC5/PS2.c ****     return status;
  90:.\Generated_Source\PSoC5/PS2.c **** }
  91:.\Generated_Source\PSoC5/PS2.c **** 
  92:.\Generated_Source\PSoC5/PS2.c **** uint8 PS2_WriteByte(uint8 data) 
  93:.\Generated_Source\PSoC5/PS2.c **** {
 168              		.loc 1 93 0
 169              		.cfi_startproc
 170              		@ args = 0, pretend = 0, frame = 0
 171              		@ frame_needed = 0, uses_anonymous_args = 0
 172              	.LVL14:
 173 0000 38B5     		push	{r3, r4, r5, lr}
 174              		.cfi_def_cfa_offset 16
 175              		.cfi_offset 3, -16
 176              		.cfi_offset 4, -12
 177              		.cfi_offset 5, -8
 178              		.cfi_offset 14, -4
 179 0002 0446     		mov	r4, r0
 180              	.LVL15:
  94:.\Generated_Source\PSoC5/PS2.c ****     uint8 status = 0;
  95:.\Generated_Source\PSoC5/PS2.c **** 	
  96:.\Generated_Source\PSoC5/PS2.c **** 	// If we are receiving something, give it 10ms to finish. If it is still in progress,
  97:.\Generated_Source\PSoC5/PS2.c **** 	// then it will have to be resent once the transmission is over. The device handles
  98:.\Generated_Source\PSoC5/PS2.c **** 	// this though
  99:.\Generated_Source\PSoC5/PS2.c ****     if (PS2_STATE != PS2_IDLE)
 181              		.loc 1 99 0
 182 0004 FFF7FEFF 		bl	PS2_stateReg_Read
 183              	.LVL16:
 184 0008 F0B1     		cbz	r0, .L14
 100:.\Generated_Source\PSoC5/PS2.c **** 	{		
 101:.\Generated_Source\PSoC5/PS2.c **** 		PS2_TIMER_WAIT(1, 1);	
ARM GAS  C:\Users\addis\AppData\Local\Temp\ccSWavHF.s 			page 6


 185              		.loc 1 101 0
 186 000a 0125     		movs	r5, #1
 187 000c 724B     		ldr	r3, .L30
 188 000e 1D80     		strh	r5, [r3]	@ movhi
 189 0010 2846     		mov	r0, r5
 190 0012 FFF7FEFF 		bl	PS2_Timer_WriteCounter
 191              	.LVL17:
 192 0016 2846     		mov	r0, r5
 193 0018 FFF7FEFF 		bl	PS2_Timer_WritePeriod
 194              	.LVL18:
 195 001c FFF7FEFF 		bl	PS2_Timer_Enable
 196              	.LVL19:
 197              	.L15:
 198              		.loc 1 101 0 is_stmt 0 discriminator 2
 199 0020 6D4B     		ldr	r3, .L30
 200 0022 1B88     		ldrh	r3, [r3]
 201 0024 002B     		cmp	r3, #0
 202 0026 FBD1     		bne	.L15
 203              		.loc 1 101 0 discriminator 3
 204 0028 FFF7FEFF 		bl	PS2_Timer_Stop
 205              	.LVL20:
 102:.\Generated_Source\PSoC5/PS2.c **** 		PS2_RESET; // Reset the state machine once the wait is done
 206              		.loc 1 102 0 is_stmt 1 discriminator 3
 207 002c FFF7FEFF 		bl	PS2_controlReg_Read
 208              	.LVL21:
 209 0030 40F00200 		orr	r0, r0, #2
 210 0034 C0B2     		uxtb	r0, r0
 211 0036 FFF7FEFF 		bl	PS2_controlReg_Write
 212              	.LVL22:
 213 003a FFF7FEFF 		bl	PS2_controlReg_Read
 214              	.LVL23:
 215 003e 00F0FD00 		and	r0, r0, #253
 216 0042 FFF7FEFF 		bl	PS2_controlReg_Write
 217              	.LVL24:
 218 0046 10E0     		b	.L16
 219              	.L14:
 103:.\Generated_Source\PSoC5/PS2.c **** 	}
 104:.\Generated_Source\PSoC5/PS2.c **** 	else
 105:.\Generated_Source\PSoC5/PS2.c **** 		PS2_TIMER_WAIT(100, 1);	
 220              		.loc 1 105 0
 221 0048 0122     		movs	r2, #1
 222 004a 634B     		ldr	r3, .L30
 223 004c 1A80     		strh	r2, [r3]	@ movhi
 224 004e 6420     		movs	r0, #100
 225 0050 FFF7FEFF 		bl	PS2_Timer_WriteCounter
 226              	.LVL25:
 227 0054 6420     		movs	r0, #100
 228 0056 FFF7FEFF 		bl	PS2_Timer_WritePeriod
 229              	.LVL26:
 230 005a FFF7FEFF 		bl	PS2_Timer_Enable
 231              	.LVL27:
 232              	.L17:
 233              		.loc 1 105 0 is_stmt 0 discriminator 2
 234 005e 5E4B     		ldr	r3, .L30
 235 0060 1B88     		ldrh	r3, [r3]
 236 0062 002B     		cmp	r3, #0
 237 0064 FBD1     		bne	.L17
ARM GAS  C:\Users\addis\AppData\Local\Temp\ccSWavHF.s 			page 7


 238              		.loc 1 105 0 discriminator 3
 239 0066 FFF7FEFF 		bl	PS2_Timer_Stop
 240              	.LVL28:
 241              	.L16:
 106:.\Generated_Source\PSoC5/PS2.c **** 	
 107:.\Generated_Source\PSoC5/PS2.c ****     PS2_WRITE; // Tell state machine we are writing
 242              		.loc 1 107 0 is_stmt 1
 243 006a FFF7FEFF 		bl	PS2_controlReg_Read
 244              	.LVL29:
 245 006e 40F00100 		orr	r0, r0, #1
 246 0072 C0B2     		uxtb	r0, r0
 247 0074 FFF7FEFF 		bl	PS2_controlReg_Write
 248              	.LVL30:
 108:.\Generated_Source\PSoC5/PS2.c **** 	PS2_CLOCK_LOW; // Set clock line to low
 249              		.loc 1 108 0
 250 0078 FFF7FEFF 		bl	PS2_controlReg_Read
 251              	.LVL31:
 252 007c 00F0F700 		and	r0, r0, #247
 253 0080 FFF7FEFF 		bl	PS2_controlReg_Write
 254              	.LVL32:
 109:.\Generated_Source\PSoC5/PS2.c **** 	
 110:.\Generated_Source\PSoC5/PS2.c **** 	PS2_TIMER_WAIT(6, 1); // Wait (10uS * 10 * 1) = 60us
 255              		.loc 1 110 0
 256 0084 0122     		movs	r2, #1
 257 0086 544B     		ldr	r3, .L30
 258 0088 1A80     		strh	r2, [r3]	@ movhi
 259 008a 0620     		movs	r0, #6
 260 008c FFF7FEFF 		bl	PS2_Timer_WriteCounter
 261              	.LVL33:
 262 0090 0620     		movs	r0, #6
 263 0092 FFF7FEFF 		bl	PS2_Timer_WritePeriod
 264              	.LVL34:
 265 0096 FFF7FEFF 		bl	PS2_Timer_Enable
 266              	.LVL35:
 267              	.L18:
 268              		.loc 1 110 0 is_stmt 0 discriminator 2
 269 009a 4F4B     		ldr	r3, .L30
 270 009c 1B88     		ldrh	r3, [r3]
 271 009e 002B     		cmp	r3, #0
 272 00a0 FBD1     		bne	.L18
 273              		.loc 1 110 0 discriminator 3
 274 00a2 FFF7FEFF 		bl	PS2_Timer_Stop
 275              	.LVL36:
 111:.\Generated_Source\PSoC5/PS2.c **** 	
 112:.\Generated_Source\PSoC5/PS2.c **** 	PS2_DATA_LOW; // Pull data line low
 276              		.loc 1 112 0 is_stmt 1 discriminator 3
 277 00a6 FFF7FEFF 		bl	PS2_controlReg_Read
 278              	.LVL37:
 279 00aa 00F0FB00 		and	r0, r0, #251
 280 00ae FFF7FEFF 		bl	PS2_controlReg_Write
 281              	.LVL38:
 113:.\Generated_Source\PSoC5/PS2.c **** 
 114:.\Generated_Source\PSoC5/PS2.c **** 	PS2_TIMER_WAIT(3, 1); // Wait (10uS * 3 * 1) = 30uS
 282              		.loc 1 114 0 discriminator 3
 283 00b2 0122     		movs	r2, #1
 284 00b4 484B     		ldr	r3, .L30
 285 00b6 1A80     		strh	r2, [r3]	@ movhi
ARM GAS  C:\Users\addis\AppData\Local\Temp\ccSWavHF.s 			page 8


 286 00b8 0320     		movs	r0, #3
 287 00ba FFF7FEFF 		bl	PS2_Timer_WriteCounter
 288              	.LVL39:
 289 00be 0320     		movs	r0, #3
 290 00c0 FFF7FEFF 		bl	PS2_Timer_WritePeriod
 291              	.LVL40:
 292 00c4 FFF7FEFF 		bl	PS2_Timer_Enable
 293              	.LVL41:
 294              	.L19:
 295              		.loc 1 114 0 is_stmt 0 discriminator 2
 296 00c8 434B     		ldr	r3, .L30
 297 00ca 1B88     		ldrh	r3, [r3]
 298 00cc 002B     		cmp	r3, #0
 299 00ce FBD1     		bne	.L19
 300              		.loc 1 114 0 discriminator 3
 301 00d0 FFF7FEFF 		bl	PS2_Timer_Stop
 302              	.LVL42:
 115:.\Generated_Source\PSoC5/PS2.c **** 	
 116:.\Generated_Source\PSoC5/PS2.c **** 	PS2_CLOCK_HIGH; // Bring the clock high again, the device should start generating clock signals
 303              		.loc 1 116 0 is_stmt 1 discriminator 3
 304 00d4 FFF7FEFF 		bl	PS2_controlReg_Read
 305              	.LVL43:
 306 00d8 40F00800 		orr	r0, r0, #8
 307 00dc C0B2     		uxtb	r0, r0
 308 00de FFF7FEFF 		bl	PS2_controlReg_Write
 309              	.LVL44:
 117:.\Generated_Source\PSoC5/PS2.c **** 	
 118:.\Generated_Source\PSoC5/PS2.c **** 	PS2_DATA_WRITE(data);
 310              		.loc 1 118 0 discriminator 3
 311 00e2 2046     		mov	r0, r4
 312 00e4 FFF7FEFF 		bl	PS2_dataIn_Write
 313              	.LVL45:
 119:.\Generated_Source\PSoC5/PS2.c **** 	PS2_DATA_CTRL_HW;
 314              		.loc 1 119 0 discriminator 3
 315 00e8 FFF7FEFF 		bl	PS2_controlReg_Read
 316              	.LVL46:
 317 00ec 40F01000 		orr	r0, r0, #16
 318 00f0 C0B2     		uxtb	r0, r0
 319 00f2 FFF7FEFF 		bl	PS2_controlReg_Write
 320              	.LVL47:
 120:.\Generated_Source\PSoC5/PS2.c **** 	PS2_DATA_HIGH;
 321              		.loc 1 120 0 discriminator 3
 322 00f6 FFF7FEFF 		bl	PS2_controlReg_Read
 323              	.LVL48:
 324 00fa 40F00400 		orr	r0, r0, #4
 325 00fe C0B2     		uxtb	r0, r0
 326 0100 FFF7FEFF 		bl	PS2_controlReg_Write
 327              	.LVL49:
 121:.\Generated_Source\PSoC5/PS2.c **** 	
 122:.\Generated_Source\PSoC5/PS2.c ****     // Per Adam Chapweske: Wait here for 15 ms or until we've transitioned
 123:.\Generated_Source\PSoC5/PS2.c ****     // out of the start bit state. If this time is exceeded, it's a timeout
 124:.\Generated_Source\PSoC5/PS2.c **** 	PS2_TIMER_WAIT_UNTIL(100, 15, PS2_STATE == PS2_WRITE_BIT_1);
 328              		.loc 1 124 0 discriminator 3
 329 0104 0F22     		movs	r2, #15
 330 0106 344B     		ldr	r3, .L30
 331 0108 1A80     		strh	r2, [r3]	@ movhi
 332 010a 6420     		movs	r0, #100
ARM GAS  C:\Users\addis\AppData\Local\Temp\ccSWavHF.s 			page 9


 333 010c FFF7FEFF 		bl	PS2_Timer_WriteCounter
 334              	.LVL50:
 335 0110 6420     		movs	r0, #100
 336 0112 FFF7FEFF 		bl	PS2_Timer_WritePeriod
 337              	.LVL51:
 338 0116 FFF7FEFF 		bl	PS2_Timer_Enable
 339              	.LVL52:
 340              	.L21:
 341              		.loc 1 124 0 is_stmt 0 discriminator 4
 342 011a 2F4B     		ldr	r3, .L30
 343 011c 1B88     		ldrh	r3, [r3]
 344 011e 1BB1     		cbz	r3, .L20
 345              		.loc 1 124 0 discriminator 2
 346 0120 FFF7FEFF 		bl	PS2_stateReg_Read
 347              	.LVL53:
 348 0124 0B28     		cmp	r0, #11
 349 0126 F8D0     		beq	.L21
 350              	.L20:
 351              		.loc 1 124 0 discriminator 5
 352 0128 FFF7FEFF 		bl	PS2_Timer_Stop
 353              	.LVL54:
 125:.\Generated_Source\PSoC5/PS2.c **** 	
 126:.\Generated_Source\PSoC5/PS2.c ****     if (PS2_STATE == PS2_WRITE_BIT_1)
 354              		.loc 1 126 0 is_stmt 1 discriminator 5
 355 012c FFF7FEFF 		bl	PS2_stateReg_Read
 356              	.LVL55:
 357 0130 0B28     		cmp	r0, #11
 358 0132 14D1     		bne	.L22
 127:.\Generated_Source\PSoC5/PS2.c ****     {
 128:.\Generated_Source\PSoC5/PS2.c ****         // We have timed out because the state has not changed for 15ms
 129:.\Generated_Source\PSoC5/PS2.c ****         PS2_DATA_CTRL_SW; // Set data line back to software, its already high
 359              		.loc 1 129 0
 360 0134 FFF7FEFF 		bl	PS2_controlReg_Read
 361              	.LVL56:
 362 0138 00F0EF00 		and	r0, r0, #239
 363 013c FFF7FEFF 		bl	PS2_controlReg_Write
 364              	.LVL57:
 130:.\Generated_Source\PSoC5/PS2.c **** 		PS2_RESET; // Reset the state machine
 365              		.loc 1 130 0
 366 0140 FFF7FEFF 		bl	PS2_controlReg_Read
 367              	.LVL58:
 368 0144 40F00200 		orr	r0, r0, #2
 369 0148 C0B2     		uxtb	r0, r0
 370 014a FFF7FEFF 		bl	PS2_controlReg_Write
 371              	.LVL59:
 372 014e FFF7FEFF 		bl	PS2_controlReg_Read
 373              	.LVL60:
 374 0152 00F0FD00 		and	r0, r0, #253
 375 0156 FFF7FEFF 		bl	PS2_controlReg_Write
 376              	.LVL61:
 131:.\Generated_Source\PSoC5/PS2.c ****         return (PS2_TIMEOUT);
 377              		.loc 1 131 0
 378 015a 0220     		movs	r0, #2
 379 015c 38BD     		pop	{r3, r4, r5, pc}
 380              	.L22:
 132:.\Generated_Source\PSoC5/PS2.c ****     }
 133:.\Generated_Source\PSoC5/PS2.c **** 
ARM GAS  C:\Users\addis\AppData\Local\Temp\ccSWavHF.s 			page 10


 134:.\Generated_Source\PSoC5/PS2.c ****     // Per Adam Chapweske: The time it takes for the packet to be sent must be no greater than 2ms.
 135:.\Generated_Source\PSoC5/PS2.c **** 	PS2_TIMER_WAIT_UNTIL(100, 2, PS2_STATUS == PS2_STATUS_PENDING);
 381              		.loc 1 135 0
 382 015e 0222     		movs	r2, #2
 383 0160 1D4B     		ldr	r3, .L30
 384 0162 1A80     		strh	r2, [r3]	@ movhi
 385 0164 6420     		movs	r0, #100
 386 0166 FFF7FEFF 		bl	PS2_Timer_WriteCounter
 387              	.LVL62:
 388 016a 6420     		movs	r0, #100
 389 016c FFF7FEFF 		bl	PS2_Timer_WritePeriod
 390              	.LVL63:
 391 0170 FFF7FEFF 		bl	PS2_Timer_Enable
 392              	.LVL64:
 393              	.L25:
 394              		.loc 1 135 0 is_stmt 0 discriminator 4
 395 0174 184B     		ldr	r3, .L30
 396 0176 1B88     		ldrh	r3, [r3]
 397 0178 1BB1     		cbz	r3, .L24
 398              		.loc 1 135 0 discriminator 2
 399 017a FFF7FEFF 		bl	PS2_statusReg_Read
 400              	.LVL65:
 401 017e 0028     		cmp	r0, #0
 402 0180 F8D0     		beq	.L25
 403              	.L24:
 404              		.loc 1 135 0 discriminator 5
 405 0182 FFF7FEFF 		bl	PS2_Timer_Stop
 406              	.LVL66:
 136:.\Generated_Source\PSoC5/PS2.c **** 	
 137:.\Generated_Source\PSoC5/PS2.c ****     if (PS2_STATUS == PS2_STATUS_DONE)
 407              		.loc 1 137 0 is_stmt 1 discriminator 5
 408 0186 FFF7FEFF 		bl	PS2_statusReg_Read
 409              	.LVL67:
 410 018a 0128     		cmp	r0, #1
 411 018c 05D0     		beq	.L27
 138:.\Generated_Source\PSoC5/PS2.c ****         status = PS2_SUCCESS;
 139:.\Generated_Source\PSoC5/PS2.c ****     else if (PS2_STATUS == PS2_STATUS_ERROR)
 412              		.loc 1 139 0
 413 018e FFF7FEFF 		bl	PS2_statusReg_Read
 414              	.LVL68:
 415 0192 0228     		cmp	r0, #2
 416 0194 03D1     		bne	.L28
 140:.\Generated_Source\PSoC5/PS2.c ****         status = PS2_ERROR;
 417              		.loc 1 140 0
 418 0196 0324     		movs	r4, #3
 419 0198 02E0     		b	.L26
 420              	.L27:
 138:.\Generated_Source\PSoC5/PS2.c ****         status = PS2_SUCCESS;
 421              		.loc 1 138 0
 422 019a 0024     		movs	r4, #0
 423 019c 00E0     		b	.L26
 424              	.L28:
 141:.\Generated_Source\PSoC5/PS2.c ****     else
 142:.\Generated_Source\PSoC5/PS2.c ****         status = PS2_TIMEOUT;
 425              		.loc 1 142 0
 426 019e 0224     		movs	r4, #2
 427              	.L26:
ARM GAS  C:\Users\addis\AppData\Local\Temp\ccSWavHF.s 			page 11


 428              	.LVL69:
 143:.\Generated_Source\PSoC5/PS2.c **** 	
 144:.\Generated_Source\PSoC5/PS2.c **** 	PS2_DATA_CTRL_SW; // Set data line back to software, its already high
 429              		.loc 1 144 0
 430 01a0 FFF7FEFF 		bl	PS2_controlReg_Read
 431              	.LVL70:
 432 01a4 00F0EF00 		and	r0, r0, #239
 433 01a8 FFF7FEFF 		bl	PS2_controlReg_Write
 434              	.LVL71:
 145:.\Generated_Source\PSoC5/PS2.c ****     PS2_RESET; // Reset the state machine
 435              		.loc 1 145 0
 436 01ac FFF7FEFF 		bl	PS2_controlReg_Read
 437              	.LVL72:
 438 01b0 40F00200 		orr	r0, r0, #2
 439 01b4 C0B2     		uxtb	r0, r0
 440 01b6 FFF7FEFF 		bl	PS2_controlReg_Write
 441              	.LVL73:
 442 01ba FFF7FEFF 		bl	PS2_controlReg_Read
 443              	.LVL74:
 444 01be 00F0FD00 		and	r0, r0, #253
 445 01c2 FFF7FEFF 		bl	PS2_controlReg_Write
 446              	.LVL75:
 146:.\Generated_Source\PSoC5/PS2.c **** 	PS2_READ; // Set the state machine back to read
 447              		.loc 1 146 0
 448 01c6 FFF7FEFF 		bl	PS2_controlReg_Read
 449              	.LVL76:
 450 01ca 00F0FE00 		and	r0, r0, #254
 451 01ce FFF7FEFF 		bl	PS2_controlReg_Write
 452              	.LVL77:
 147:.\Generated_Source\PSoC5/PS2.c ****     return status;
 453              		.loc 1 147 0
 454 01d2 2046     		mov	r0, r4
 148:.\Generated_Source\PSoC5/PS2.c **** }
 455              		.loc 1 148 0
 456 01d4 38BD     		pop	{r3, r4, r5, pc}
 457              	.LVL78:
 458              	.L31:
 459 01d6 00BF     		.align	2
 460              	.L30:
 461 01d8 00000000 		.word	PS2_timer_reps
 462              		.cfi_endproc
 463              	.LFE4:
 464              		.size	PS2_WriteByte, .-PS2_WriteByte
 465              		.section	.text.PS2_SendCommand,"ax",%progbits
 466              		.align	2
 467              		.global	PS2_SendCommand
 468              		.thumb
 469              		.thumb_func
 470              		.type	PS2_SendCommand, %function
 471              	PS2_SendCommand:
 472              	.LFB5:
 149:.\Generated_Source\PSoC5/PS2.c **** 
 150:.\Generated_Source\PSoC5/PS2.c **** uint8 PS2_SendCommand(uint8 data) 
 151:.\Generated_Source\PSoC5/PS2.c **** {
 473              		.loc 1 151 0
 474              		.cfi_startproc
 475              		@ args = 0, pretend = 0, frame = 0
ARM GAS  C:\Users\addis\AppData\Local\Temp\ccSWavHF.s 			page 12


 476              		@ frame_needed = 0, uses_anonymous_args = 0
 477              	.LVL79:
 478 0000 10B5     		push	{r4, lr}
 479              		.cfi_def_cfa_offset 8
 480              		.cfi_offset 4, -8
 481              		.cfi_offset 14, -4
 482 0002 0446     		mov	r4, r0
 483              	.LVL80:
 484              	.L42:
 152:.\Generated_Source\PSoC5/PS2.c **** 	uint8 txStatus;
 153:.\Generated_Source\PSoC5/PS2.c **** 	
 154:.\Generated_Source\PSoC5/PS2.c **** 	// XXX - Maybe put an upper bound on the number of resends to do
 155:.\Generated_Source\PSoC5/PS2.c **** 	// Loop in case of resends
 156:.\Generated_Source\PSoC5/PS2.c **** 	while (1)
 157:.\Generated_Source\PSoC5/PS2.c **** 	{
 158:.\Generated_Source\PSoC5/PS2.c **** 		txStatus = PS2_WriteByte(data);
 485              		.loc 1 158 0
 486 0004 2046     		mov	r0, r4
 487 0006 FFF7FEFF 		bl	PS2_WriteByte
 488              	.LVL81:
 159:.\Generated_Source\PSoC5/PS2.c **** 		// Non-zero return means there was an error
 160:.\Generated_Source\PSoC5/PS2.c **** 		if (txStatus)
 489              		.loc 1 160 0
 490 000a 00B1     		cbz	r0, .L33
 161:.\Generated_Source\PSoC5/PS2.c **** 			return txStatus;
 491              		.loc 1 161 0
 492 000c 10BD     		pop	{r4, pc}
 493              	.L33:
 162:.\Generated_Source\PSoC5/PS2.c **** 
 163:.\Generated_Source\PSoC5/PS2.c **** 		// The device should respond within 20ms of the time of sending
 164:.\Generated_Source\PSoC5/PS2.c **** 		PS2_TIMER_WAIT_UNTIL(100, 20, PS2_STATUS == PS2_STATUS_PENDING);
 494              		.loc 1 164 0
 495 000e 1422     		movs	r2, #20
 496 0010 334B     		ldr	r3, .L47
 497 0012 1A80     		strh	r2, [r3]	@ movhi
 498 0014 6420     		movs	r0, #100
 499              	.LVL82:
 500 0016 FFF7FEFF 		bl	PS2_Timer_WriteCounter
 501              	.LVL83:
 502 001a 6420     		movs	r0, #100
 503 001c FFF7FEFF 		bl	PS2_Timer_WritePeriod
 504              	.LVL84:
 505 0020 FFF7FEFF 		bl	PS2_Timer_Enable
 506              	.LVL85:
 507              	.L36:
 508              		.loc 1 164 0 is_stmt 0 discriminator 4
 509 0024 2E4B     		ldr	r3, .L47
 510 0026 1B88     		ldrh	r3, [r3]
 511 0028 1BB1     		cbz	r3, .L35
 512              		.loc 1 164 0 discriminator 2
 513 002a FFF7FEFF 		bl	PS2_statusReg_Read
 514              	.LVL86:
 515 002e 0028     		cmp	r0, #0
 516 0030 F8D0     		beq	.L36
 517              	.L35:
 518              		.loc 1 164 0 discriminator 5
 519 0032 FFF7FEFF 		bl	PS2_Timer_Stop
ARM GAS  C:\Users\addis\AppData\Local\Temp\ccSWavHF.s 			page 13


 520              	.LVL87:
 165:.\Generated_Source\PSoC5/PS2.c **** 		if (PS2_STATUS == PS2_STATUS_DONE)
 521              		.loc 1 165 0 is_stmt 1 discriminator 5
 522 0036 FFF7FEFF 		bl	PS2_statusReg_Read
 523              	.LVL88:
 524 003a 0128     		cmp	r0, #1
 525 003c 45D1     		bne	.L37
 166:.\Generated_Source\PSoC5/PS2.c **** 		{
 167:.\Generated_Source\PSoC5/PS2.c **** 			switch (PS2_BYTE_R)
 526              		.loc 1 167 0
 527 003e FFF7FEFF 		bl	PS2_dataOut_Read
 528              	.LVL89:
 529 0042 FA28     		cmp	r0, #250
 530 0044 04D0     		beq	.L39
 531 0046 FE28     		cmp	r0, #254
 532 0048 11D0     		beq	.L40
 533 004a EE28     		cmp	r0, #238
 534 004c 2ED1     		bne	.L45
 535 004e 1CE0     		b	.L41
 536              	.L39:
 168:.\Generated_Source\PSoC5/PS2.c **** 			{
 169:.\Generated_Source\PSoC5/PS2.c **** 				case 0xFA: // ACK: The device correctly received our command
 170:.\Generated_Source\PSoC5/PS2.c **** 					PS2_RESET;
 537              		.loc 1 170 0
 538 0050 FFF7FEFF 		bl	PS2_controlReg_Read
 539              	.LVL90:
 540 0054 40F00200 		orr	r0, r0, #2
 541 0058 C0B2     		uxtb	r0, r0
 542 005a FFF7FEFF 		bl	PS2_controlReg_Write
 543              	.LVL91:
 544 005e FFF7FEFF 		bl	PS2_controlReg_Read
 545              	.LVL92:
 546 0062 00F0FD00 		and	r0, r0, #253
 547 0066 FFF7FEFF 		bl	PS2_controlReg_Write
 548              	.LVL93:
 171:.\Generated_Source\PSoC5/PS2.c **** 					return PS2_SUCCESS;
 549              		.loc 1 171 0
 550 006a 0020     		movs	r0, #0
 551 006c 10BD     		pop	{r4, pc}
 552              	.L40:
 172:.\Generated_Source\PSoC5/PS2.c **** 					
 173:.\Generated_Source\PSoC5/PS2.c **** 				case 0xFE: // RESEND: The device wants us to resend the last byte
 174:.\Generated_Source\PSoC5/PS2.c **** 					// Caused by the device receiving an incorrect parity error
 175:.\Generated_Source\PSoC5/PS2.c **** 					// If we break out of this switch, the while loop will resend the byte
 176:.\Generated_Source\PSoC5/PS2.c **** 					PS2_RESET;
 553              		.loc 1 176 0
 554 006e FFF7FEFF 		bl	PS2_controlReg_Read
 555              	.LVL94:
 556 0072 40F00200 		orr	r0, r0, #2
 557 0076 C0B2     		uxtb	r0, r0
 558 0078 FFF7FEFF 		bl	PS2_controlReg_Write
 559              	.LVL95:
 560 007c FFF7FEFF 		bl	PS2_controlReg_Read
 561              	.LVL96:
 562 0080 00F0FD00 		and	r0, r0, #253
 563 0084 FFF7FEFF 		bl	PS2_controlReg_Write
 564              	.LVL97:
ARM GAS  C:\Users\addis\AppData\Local\Temp\ccSWavHF.s 			page 14


 565 0088 BCE7     		b	.L42
 566              	.L41:
 177:.\Generated_Source\PSoC5/PS2.c **** 					break;
 178:.\Generated_Source\PSoC5/PS2.c **** 				
 179:.\Generated_Source\PSoC5/PS2.c **** 				case 0xEE: // ECHO: The device responded with an Echo
 180:.\Generated_Source\PSoC5/PS2.c **** 					// This should be because we sent it an echo
 181:.\Generated_Source\PSoC5/PS2.c **** 					PS2_RESET;
 567              		.loc 1 181 0
 568 008a FFF7FEFF 		bl	PS2_controlReg_Read
 569              	.LVL98:
 570 008e 40F00200 		orr	r0, r0, #2
 571 0092 C0B2     		uxtb	r0, r0
 572 0094 FFF7FEFF 		bl	PS2_controlReg_Write
 573              	.LVL99:
 574 0098 FFF7FEFF 		bl	PS2_controlReg_Read
 575              	.LVL100:
 576 009c 00F0FD00 		and	r0, r0, #253
 577 00a0 FFF7FEFF 		bl	PS2_controlReg_Write
 578              	.LVL101:
 182:.\Generated_Source\PSoC5/PS2.c **** 					if (data == 0xEE)
 579              		.loc 1 182 0
 580 00a4 EE2C     		cmp	r4, #238
 581 00a6 16D1     		bne	.L43
 183:.\Generated_Source\PSoC5/PS2.c **** 						return PS2_SUCCESS;
 582              		.loc 1 183 0
 583 00a8 0020     		movs	r0, #0
 584 00aa 10BD     		pop	{r4, pc}
 585              	.L45:
 184:.\Generated_Source\PSoC5/PS2.c **** 					return PS2_INVALID_RESPONSE;
 185:.\Generated_Source\PSoC5/PS2.c **** 					
 186:.\Generated_Source\PSoC5/PS2.c **** 				default:
 187:.\Generated_Source\PSoC5/PS2.c **** 					PS2_RESET;
 586              		.loc 1 187 0
 587 00ac FFF7FEFF 		bl	PS2_controlReg_Read
 588              	.LVL102:
 589 00b0 40F00200 		orr	r0, r0, #2
 590 00b4 C0B2     		uxtb	r0, r0
 591 00b6 FFF7FEFF 		bl	PS2_controlReg_Write
 592              	.LVL103:
 593 00ba FFF7FEFF 		bl	PS2_controlReg_Read
 594              	.LVL104:
 595 00be 00F0FD00 		and	r0, r0, #253
 596 00c2 FFF7FEFF 		bl	PS2_controlReg_Write
 597              	.LVL105:
 188:.\Generated_Source\PSoC5/PS2.c **** 					return PS2_INVALID_RESPONSE;
 598              		.loc 1 188 0
 599 00c6 0420     		movs	r0, #4
 600 00c8 10BD     		pop	{r4, pc}
 601              	.L37:
 189:.\Generated_Source\PSoC5/PS2.c **** 			}
 190:.\Generated_Source\PSoC5/PS2.c **** 		}
 191:.\Generated_Source\PSoC5/PS2.c **** 		else if (PS2_STATUS == PS2_STATUS_ERROR)
 602              		.loc 1 191 0
 603 00ca FFF7FEFF 		bl	PS2_statusReg_Read
 604              	.LVL106:
 605 00ce 0228     		cmp	r0, #2
 606 00d0 03D0     		beq	.L44
ARM GAS  C:\Users\addis\AppData\Local\Temp\ccSWavHF.s 			page 15


 192:.\Generated_Source\PSoC5/PS2.c **** 		{
 193:.\Generated_Source\PSoC5/PS2.c **** 			// Some sort of error such as parity or incorrect start/stop bit
 194:.\Generated_Source\PSoC5/PS2.c **** 			// Resend the byte
 195:.\Generated_Source\PSoC5/PS2.c **** 			break;	
 196:.\Generated_Source\PSoC5/PS2.c **** 		}
 197:.\Generated_Source\PSoC5/PS2.c **** 		else
 198:.\Generated_Source\PSoC5/PS2.c **** 			return PS2_TIMEOUT; // Device timed out
 607              		.loc 1 198 0
 608 00d2 0220     		movs	r0, #2
 609 00d4 10BD     		pop	{r4, pc}
 610              	.L43:
 184:.\Generated_Source\PSoC5/PS2.c **** 					
 611              		.loc 1 184 0
 612 00d6 0420     		movs	r0, #4
 613 00d8 10BD     		pop	{r4, pc}
 614              	.L44:
 199:.\Generated_Source\PSoC5/PS2.c **** 	}
 200:.\Generated_Source\PSoC5/PS2.c **** 	
 201:.\Generated_Source\PSoC5/PS2.c **** 	// The code should never reach here, but we return something to shut the compiler up
 202:.\Generated_Source\PSoC5/PS2.c **** 	return PS2_ERROR;
 615              		.loc 1 202 0
 616 00da 0320     		movs	r0, #3
 203:.\Generated_Source\PSoC5/PS2.c **** }
 617              		.loc 1 203 0
 618 00dc 10BD     		pop	{r4, pc}
 619              	.L48:
 620 00de 00BF     		.align	2
 621              	.L47:
 622 00e0 00000000 		.word	PS2_timer_reps
 623              		.cfi_endproc
 624              	.LFE5:
 625              		.size	PS2_SendCommand, .-PS2_SendCommand
 626              		.section	.text.PS2_DetectDevice,"ax",%progbits
 627              		.align	2
 628              		.global	PS2_DetectDevice
 629              		.thumb
 630              		.thumb_func
 631              		.type	PS2_DetectDevice, %function
 632              	PS2_DetectDevice:
 633              	.LFB3:
  51:.\Generated_Source\PSoC5/PS2.c ****     uint8 status;
 634              		.loc 1 51 0
 635              		.cfi_startproc
 636              		@ args = 0, pretend = 0, frame = 0
 637              		@ frame_needed = 0, uses_anonymous_args = 0
 638 0000 10B5     		push	{r4, lr}
 639              		.cfi_def_cfa_offset 8
 640              		.cfi_offset 4, -8
 641              		.cfi_offset 14, -4
  56:.\Generated_Source\PSoC5/PS2.c **** 		PS2_SendCommand(0xFF);
 642              		.loc 1 56 0
 643 0002 264B     		ldr	r3, .L59
 644 0004 1B78     		ldrb	r3, [r3]	@ zero_extendqisi2
 645 0006 13B1     		cbz	r3, .L50
  57:.\Generated_Source\PSoC5/PS2.c **** 		
 646              		.loc 1 57 0
 647 0008 FF20     		movs	r0, #255
ARM GAS  C:\Users\addis\AppData\Local\Temp\ccSWavHF.s 			page 16


 648 000a FFF7FEFF 		bl	PS2_SendCommand
 649              	.LVL107:
 650              	.L50:
  59:.\Generated_Source\PSoC5/PS2.c **** 
 651              		.loc 1 59 0
 652 000e FFF7FEFF 		bl	PS2_controlReg_Read
 653              	.LVL108:
 654 0012 00F0FE00 		and	r0, r0, #254
 655 0016 FFF7FEFF 		bl	PS2_controlReg_Write
 656              	.LVL109:
  61:.\Generated_Source\PSoC5/PS2.c **** 	if (PS2_STATUS == PS2_STATUS_DONE)
 657              		.loc 1 61 0
 658 001a 4FF4FA72 		mov	r2, #500
 659 001e 204B     		ldr	r3, .L59+4
 660 0020 1A80     		strh	r2, [r3]	@ movhi
 661 0022 C820     		movs	r0, #200
 662 0024 FFF7FEFF 		bl	PS2_Timer_WriteCounter
 663              	.LVL110:
 664 0028 C820     		movs	r0, #200
 665 002a FFF7FEFF 		bl	PS2_Timer_WritePeriod
 666              	.LVL111:
 667 002e FFF7FEFF 		bl	PS2_Timer_Enable
 668              	.LVL112:
 669              	.L52:
  61:.\Generated_Source\PSoC5/PS2.c **** 	if (PS2_STATUS == PS2_STATUS_DONE)
 670              		.loc 1 61 0 is_stmt 0 discriminator 4
 671 0032 1B4B     		ldr	r3, .L59+4
 672 0034 1B88     		ldrh	r3, [r3]
 673 0036 1BB1     		cbz	r3, .L51
  61:.\Generated_Source\PSoC5/PS2.c **** 	if (PS2_STATUS == PS2_STATUS_DONE)
 674              		.loc 1 61 0 discriminator 2
 675 0038 FFF7FEFF 		bl	PS2_statusReg_Read
 676              	.LVL113:
 677 003c 0028     		cmp	r0, #0
 678 003e F8D0     		beq	.L52
 679              	.L51:
  61:.\Generated_Source\PSoC5/PS2.c **** 	if (PS2_STATUS == PS2_STATUS_DONE)
 680              		.loc 1 61 0 discriminator 5
 681 0040 FFF7FEFF 		bl	PS2_Timer_Stop
 682              	.LVL114:
  62:.\Generated_Source\PSoC5/PS2.c ****     {
 683              		.loc 1 62 0 is_stmt 1 discriminator 5
 684 0044 FFF7FEFF 		bl	PS2_statusReg_Read
 685              	.LVL115:
 686 0048 0128     		cmp	r0, #1
 687 004a 0AD1     		bne	.L53
  65:.\Generated_Source\PSoC5/PS2.c ****         {
 688              		.loc 1 65 0
 689 004c FFF7FEFF 		bl	PS2_dataOut_Read
 690              	.LVL116:
 691 0050 AA28     		cmp	r0, #170
 692 0052 01D1     		bne	.L57
  68:.\Generated_Source\PSoC5/PS2.c ****         }
 693              		.loc 1 68 0
 694 0054 0024     		movs	r4, #0
 695 0056 00E0     		b	.L54
 696              	.L57:
ARM GAS  C:\Users\addis\AppData\Local\Temp\ccSWavHF.s 			page 17


  71:.\Generated_Source\PSoC5/PS2.c **** 
 697              		.loc 1 71 0
 698 0058 0124     		movs	r4, #1
 699              	.L54:
 700              	.LVL117:
  73:.\Generated_Source\PSoC5/PS2.c ****     }
 701              		.loc 1 73 0
 702 005a 0022     		movs	r2, #0
 703 005c 0F4B     		ldr	r3, .L59
 704 005e 1A70     		strb	r2, [r3]
 705 0060 0CE0     		b	.L55
 706              	.LVL118:
 707              	.L53:
  75:.\Generated_Source\PSoC5/PS2.c ****     {
 708              		.loc 1 75 0
 709 0062 FFF7FEFF 		bl	PS2_statusReg_Read
 710              	.LVL119:
 711 0066 0228     		cmp	r0, #2
 712 0068 04D1     		bne	.L56
  77:.\Generated_Source\PSoC5/PS2.c ****         status = PS2_ERROR;
 713              		.loc 1 77 0
 714 006a 0122     		movs	r2, #1
 715 006c 0B4B     		ldr	r3, .L59
 716 006e 1A70     		strb	r2, [r3]
 717              	.LVL120:
  78:.\Generated_Source\PSoC5/PS2.c ****     }
 718              		.loc 1 78 0
 719 0070 0324     		movs	r4, #3
 720 0072 03E0     		b	.L55
 721              	.LVL121:
 722              	.L56:
  82:.\Generated_Source\PSoC5/PS2.c ****         status = PS2_TIMEOUT;
 723              		.loc 1 82 0
 724 0074 0122     		movs	r2, #1
 725 0076 094B     		ldr	r3, .L59
 726 0078 1A70     		strb	r2, [r3]
 727              	.LVL122:
  83:.\Generated_Source\PSoC5/PS2.c ****     }
 728              		.loc 1 83 0
 729 007a 0224     		movs	r4, #2
 730              	.LVL123:
 731              	.L55:
  88:.\Generated_Source\PSoC5/PS2.c ****     return status;
 732              		.loc 1 88 0
 733 007c FFF7FEFF 		bl	PS2_controlReg_Read
 734              	.LVL124:
 735 0080 40F00200 		orr	r0, r0, #2
 736 0084 C0B2     		uxtb	r0, r0
 737 0086 FFF7FEFF 		bl	PS2_controlReg_Write
 738              	.LVL125:
 739 008a FFF7FEFF 		bl	PS2_controlReg_Read
 740              	.LVL126:
 741 008e 00F0FD00 		and	r0, r0, #253
 742 0092 FFF7FEFF 		bl	PS2_controlReg_Write
 743              	.LVL127:
  90:.\Generated_Source\PSoC5/PS2.c **** 
 744              		.loc 1 90 0
ARM GAS  C:\Users\addis\AppData\Local\Temp\ccSWavHF.s 			page 18


 745 0096 2046     		mov	r0, r4
 746 0098 10BD     		pop	{r4, pc}
 747              	.LVL128:
 748              	.L60:
 749 009a 00BF     		.align	2
 750              	.L59:
 751 009c 00000000 		.word	PS2_deviceDetectFail
 752 00a0 00000000 		.word	PS2_timer_reps
 753              		.cfi_endproc
 754              	.LFE3:
 755              		.size	PS2_DetectDevice, .-PS2_DetectDevice
 756              		.section	.text.PS2_ReadByte,"ax",%progbits
 757              		.align	2
 758              		.global	PS2_ReadByte
 759              		.thumb
 760              		.thumb_func
 761              		.type	PS2_ReadByte, %function
 762              	PS2_ReadByte:
 763              	.LFB6:
 204:.\Generated_Source\PSoC5/PS2.c **** 
 205:.\Generated_Source\PSoC5/PS2.c **** // Blocking function to read a byte. Returns the byte read
 206:.\Generated_Source\PSoC5/PS2.c **** uint8 PS2_ReadByte(void) 
 207:.\Generated_Source\PSoC5/PS2.c **** {
 764              		.loc 1 207 0
 765              		.cfi_startproc
 766              		@ args = 0, pretend = 0, frame = 0
 767              		@ frame_needed = 0, uses_anonymous_args = 0
 768 0000 08B5     		push	{r3, lr}
 769              		.cfi_def_cfa_offset 8
 770              		.cfi_offset 3, -8
 771              		.cfi_offset 14, -4
 772              	.L62:
 208:.\Generated_Source\PSoC5/PS2.c **** 	while (PS2_STATUS != PS2_STATUS_DONE);
 773              		.loc 1 208 0 discriminator 1
 774 0002 FFF7FEFF 		bl	PS2_statusReg_Read
 775              	.LVL129:
 776 0006 0128     		cmp	r0, #1
 777 0008 FBD1     		bne	.L62
 209:.\Generated_Source\PSoC5/PS2.c **** 	
 210:.\Generated_Source\PSoC5/PS2.c **** 	PS2_RESET; // Reset the state machine
 778              		.loc 1 210 0
 779 000a FFF7FEFF 		bl	PS2_controlReg_Read
 780              	.LVL130:
 781 000e 40F00200 		orr	r0, r0, #2
 782 0012 C0B2     		uxtb	r0, r0
 783 0014 FFF7FEFF 		bl	PS2_controlReg_Write
 784              	.LVL131:
 785 0018 FFF7FEFF 		bl	PS2_controlReg_Read
 786              	.LVL132:
 787 001c 00F0FD00 		and	r0, r0, #253
 788 0020 FFF7FEFF 		bl	PS2_controlReg_Write
 789              	.LVL133:
 211:.\Generated_Source\PSoC5/PS2.c **** 	return PS2_BYTE_R; // Return the read byte
 790              		.loc 1 211 0
 791 0024 FFF7FEFF 		bl	PS2_dataOut_Read
 792              	.LVL134:
 212:.\Generated_Source\PSoC5/PS2.c **** }
ARM GAS  C:\Users\addis\AppData\Local\Temp\ccSWavHF.s 			page 19


 793              		.loc 1 212 0
 794 0028 08BD     		pop	{r3, pc}
 795              		.cfi_endproc
 796              	.LFE6:
 797              		.size	PS2_ReadByte, .-PS2_ReadByte
 798 002a 00BF     		.section	.text.PS2_cReadByte,"ax",%progbits
 799              		.align	2
 800              		.global	PS2_cReadByte
 801              		.thumb
 802              		.thumb_func
 803              		.type	PS2_cReadByte, %function
 804              	PS2_cReadByte:
 805              	.LFB7:
 213:.\Generated_Source\PSoC5/PS2.c **** 
 214:.\Generated_Source\PSoC5/PS2.c **** // Non-blocking function to read a byte. Returns 0x00 if no data is available. Otherwise it returns
 215:.\Generated_Source\PSoC5/PS2.c **** uint8 PS2_cReadByte(void) 
 216:.\Generated_Source\PSoC5/PS2.c **** {
 806              		.loc 1 216 0
 807              		.cfi_startproc
 808              		@ args = 0, pretend = 0, frame = 0
 809              		@ frame_needed = 0, uses_anonymous_args = 0
 810 0000 08B5     		push	{r3, lr}
 811              		.cfi_def_cfa_offset 8
 812              		.cfi_offset 3, -8
 813              		.cfi_offset 14, -4
 217:.\Generated_Source\PSoC5/PS2.c **** 	if (PS2_STATUS != PS2_STATUS_DONE)
 814              		.loc 1 217 0
 815 0002 FFF7FEFF 		bl	PS2_statusReg_Read
 816              	.LVL135:
 817 0006 0128     		cmp	r0, #1
 818 0008 0FD1     		bne	.L66
 218:.\Generated_Source\PSoC5/PS2.c **** 		return 0x00;
 219:.\Generated_Source\PSoC5/PS2.c **** 
 220:.\Generated_Source\PSoC5/PS2.c **** 	PS2_RESET; // Reset the state machine
 819              		.loc 1 220 0
 820 000a FFF7FEFF 		bl	PS2_controlReg_Read
 821              	.LVL136:
 822 000e 40F00200 		orr	r0, r0, #2
 823 0012 C0B2     		uxtb	r0, r0
 824 0014 FFF7FEFF 		bl	PS2_controlReg_Write
 825              	.LVL137:
 826 0018 FFF7FEFF 		bl	PS2_controlReg_Read
 827              	.LVL138:
 828 001c 00F0FD00 		and	r0, r0, #253
 829 0020 FFF7FEFF 		bl	PS2_controlReg_Write
 830              	.LVL139:
 221:.\Generated_Source\PSoC5/PS2.c **** 	return PS2_BYTE_R; // Return the read byte
 831              		.loc 1 221 0
 832 0024 FFF7FEFF 		bl	PS2_dataOut_Read
 833              	.LVL140:
 834 0028 08BD     		pop	{r3, pc}
 835              	.L66:
 218:.\Generated_Source\PSoC5/PS2.c **** 		return 0x00;
 836              		.loc 1 218 0
 837 002a 0020     		movs	r0, #0
 222:.\Generated_Source\PSoC5/PS2.c **** }    
 838              		.loc 1 222 0
ARM GAS  C:\Users\addis\AppData\Local\Temp\ccSWavHF.s 			page 20


 839 002c 08BD     		pop	{r3, pc}
 840              		.cfi_endproc
 841              	.LFE7:
 842              		.size	PS2_cReadByte, .-PS2_cReadByte
 843              		.comm	PS2_deviceDetectFail,1,1
 844              		.comm	PS2_initVar,1,1
 845              		.comm	PS2_timer_reps,2,2
 846 002e 00BF     		.text
 847              	.Letext0:
 848              		.file 2 ".\\Generated_Source\\PSoC5\\cytypes.h"
 849              		.file 3 ".\\Generated_Source\\PSoC5\\PS2_Timer.h"
 850              		.file 4 ".\\Generated_Source\\PSoC5\\PS2_Timer_ISR.h"
 851              		.file 5 ".\\Generated_Source\\PSoC5\\PS2_controlReg.h"
 852              		.file 6 ".\\Generated_Source\\PSoC5\\PS2_stateReg.h"
 853              		.file 7 ".\\Generated_Source\\PSoC5\\PS2_dataIn.h"
 854              		.file 8 ".\\Generated_Source\\PSoC5\\PS2_statusReg.h"
 855              		.file 9 ".\\Generated_Source\\PSoC5\\PS2_dataOut.h"