ARM GAS  C:\Users\addis\AppData\Local\Temp\ccmHqk3Q.s 			page 1


   1              		.syntax unified
   2              		.cpu cortex-m3
   3              		.fpu softvfp
   4              		.eabi_attribute 20, 1
   5              		.eabi_attribute 21, 1
   6              		.eabi_attribute 23, 3
   7              		.eabi_attribute 24, 1
   8              		.eabi_attribute 25, 1
   9              		.eabi_attribute 26, 1
  10              		.eabi_attribute 30, 1
  11              		.eabi_attribute 34, 1
  12              		.eabi_attribute 18, 4
  13              		.thumb
  14              		.file	"PS2_ps2.c"
  15              		.text
  16              	.Ltext0:
  17              		.cfi_sections	.debug_frame
  18              		.section	.text.PS2_TIMER,"ax",%progbits
  19              		.align	2
  20              		.global	PS2_TIMER
  21              		.thumb
  22              		.thumb_func
  23              		.type	PS2_TIMER, %function
  24              	PS2_TIMER:
  25              	.LFB0:
  26              		.file 1 ".\\Generated_Source\\PSoC5\\PS2_ps2.c"
   1:.\Generated_Source\PSoC5/PS2_ps2.c **** /* ========================================
   2:.\Generated_Source\PSoC5/PS2_ps2.c ****  *
   3:.\Generated_Source\PSoC5/PS2_ps2.c ****  * Copyright YOUR COMPANY, THE YEAR
   4:.\Generated_Source\PSoC5/PS2_ps2.c ****  * All Rights Reserved
   5:.\Generated_Source\PSoC5/PS2_ps2.c ****  * UNPUBLISHED, LICENSED SOFTWARE.
   6:.\Generated_Source\PSoC5/PS2_ps2.c ****  *
   7:.\Generated_Source\PSoC5/PS2_ps2.c ****  * CONFIDENTIAL AND PROPRIETARY INFORMATION
   8:.\Generated_Source\PSoC5/PS2_ps2.c ****  * WHICH IS THE PROPERTY OF your company.
   9:.\Generated_Source\PSoC5/PS2_ps2.c ****  *
  10:.\Generated_Source\PSoC5/PS2_ps2.c ****  * ========================================
  11:.\Generated_Source\PSoC5/PS2_ps2.c **** */
  12:.\Generated_Source\PSoC5/PS2_ps2.c **** 
  13:.\Generated_Source\PSoC5/PS2_ps2.c **** #include "PS2_ps2.h"
  14:.\Generated_Source\PSoC5/PS2_ps2.c **** 
  15:.\Generated_Source\PSoC5/PS2_ps2.c **** uint8 PS2_counter_trigger;
  16:.\Generated_Source\PSoC5/PS2_ps2.c **** uint8 PS2_initVar;
  17:.\Generated_Source\PSoC5/PS2_ps2.c **** 
  18:.\Generated_Source\PSoC5/PS2_ps2.c **** CY_ISR(PS2_TIMER)
  19:.\Generated_Source\PSoC5/PS2_ps2.c **** {
  27              		.loc 1 19 0
  28              		.cfi_startproc
  29              		@ args = 0, pretend = 0, frame = 0
  30              		@ frame_needed = 0, uses_anonymous_args = 0
  31 0000 08B5     		push	{r3, lr}
  32              		.cfi_def_cfa_offset 8
  33              		.cfi_offset 3, -8
  34              		.cfi_offset 14, -4
  20:.\Generated_Source\PSoC5/PS2_ps2.c ****     PS2_Timer_STATUS;
  35              		.loc 1 20 0
  36 0002 044B     		ldr	r3, .L3
  37 0004 1B78     		ldrb	r3, [r3]	@ zero_extendqisi2
ARM GAS  C:\Users\addis\AppData\Local\Temp\ccmHqk3Q.s 			page 2


  21:.\Generated_Source\PSoC5/PS2_ps2.c ****     PS2_counter_trigger = 1;    
  38              		.loc 1 21 0
  39 0006 0122     		movs	r2, #1
  40 0008 034B     		ldr	r3, .L3+4
  41 000a 1A70     		strb	r2, [r3]
  22:.\Generated_Source\PSoC5/PS2_ps2.c ****     PS2_Timer_Stop();
  42              		.loc 1 22 0
  43 000c FFF7FEFF 		bl	PS2_Timer_Stop
  44              	.LVL0:
  45 0010 08BD     		pop	{r3, pc}
  46              	.L4:
  47 0012 00BF     		.align	2
  48              	.L3:
  49 0014 034F0040 		.word	1073762051
  50 0018 00000000 		.word	PS2_counter_trigger
  51              		.cfi_endproc
  52              	.LFE0:
  53              		.size	PS2_TIMER, .-PS2_TIMER
  54              		.section	.text.PS2_Init,"ax",%progbits
  55              		.align	2
  56              		.global	PS2_Init
  57              		.thumb
  58              		.thumb_func
  59              		.type	PS2_Init, %function
  60              	PS2_Init:
  61              	.LFB1:
  23:.\Generated_Source\PSoC5/PS2_ps2.c **** }
  24:.\Generated_Source\PSoC5/PS2_ps2.c **** 
  25:.\Generated_Source\PSoC5/PS2_ps2.c **** void PS2_Init(void) 
  26:.\Generated_Source\PSoC5/PS2_ps2.c **** {
  62              		.loc 1 26 0
  63              		.cfi_startproc
  64              		@ args = 0, pretend = 0, frame = 0
  65              		@ frame_needed = 0, uses_anonymous_args = 0
  66 0000 08B5     		push	{r3, lr}
  67              		.cfi_def_cfa_offset 8
  68              		.cfi_offset 3, -8
  69              		.cfi_offset 14, -4
  27:.\Generated_Source\PSoC5/PS2_ps2.c ****     PS2_counter_trigger = 0;
  70              		.loc 1 27 0
  71 0002 0022     		movs	r2, #0
  72 0004 044B     		ldr	r3, .L7
  73 0006 1A70     		strb	r2, [r3]
  28:.\Generated_Source\PSoC5/PS2_ps2.c ****     PS2_Timer_ISR_StartEx(PS2_TIMER);
  74              		.loc 1 28 0
  75 0008 0448     		ldr	r0, .L7+4
  76 000a FFF7FEFF 		bl	PS2_Timer_ISR_StartEx
  77              	.LVL1:
  29:.\Generated_Source\PSoC5/PS2_ps2.c ****     PS2_Timer_Start();
  78              		.loc 1 29 0
  79 000e FFF7FEFF 		bl	PS2_Timer_Start
  80              	.LVL2:
  30:.\Generated_Source\PSoC5/PS2_ps2.c ****     PS2_Timer_Stop();
  81              		.loc 1 30 0
  82 0012 FFF7FEFF 		bl	PS2_Timer_Stop
  83              	.LVL3:
  84 0016 08BD     		pop	{r3, pc}
ARM GAS  C:\Users\addis\AppData\Local\Temp\ccmHqk3Q.s 			page 3


  85              	.L8:
  86              		.align	2
  87              	.L7:
  88 0018 00000000 		.word	PS2_counter_trigger
  89 001c 00000000 		.word	PS2_TIMER
  90              		.cfi_endproc
  91              	.LFE1:
  92              		.size	PS2_Init, .-PS2_Init
  93              		.section	.text.PS2_Start,"ax",%progbits
  94              		.align	2
  95              		.global	PS2_Start
  96              		.thumb
  97              		.thumb_func
  98              		.type	PS2_Start, %function
  99              	PS2_Start:
 100              	.LFB2:
  31:.\Generated_Source\PSoC5/PS2_ps2.c **** }
  32:.\Generated_Source\PSoC5/PS2_ps2.c **** 
  33:.\Generated_Source\PSoC5/PS2_ps2.c **** void PS2_Start(void) 
  34:.\Generated_Source\PSoC5/PS2_ps2.c **** {
 101              		.loc 1 34 0
 102              		.cfi_startproc
 103              		@ args = 0, pretend = 0, frame = 0
 104              		@ frame_needed = 0, uses_anonymous_args = 0
 105 0000 08B5     		push	{r3, lr}
 106              		.cfi_def_cfa_offset 8
 107              		.cfi_offset 3, -8
 108              		.cfi_offset 14, -4
  35:.\Generated_Source\PSoC5/PS2_ps2.c ****     if (0u == PS2_initVar)
 109              		.loc 1 35 0
 110 0002 044B     		ldr	r3, .L12
 111 0004 1B78     		ldrb	r3, [r3]	@ zero_extendqisi2
 112 0006 23B9     		cbnz	r3, .L9
  36:.\Generated_Source\PSoC5/PS2_ps2.c ****     {
  37:.\Generated_Source\PSoC5/PS2_ps2.c ****         PS2_Init();
 113              		.loc 1 37 0
 114 0008 FFF7FEFF 		bl	PS2_Init
 115              	.LVL4:
  38:.\Generated_Source\PSoC5/PS2_ps2.c ****         PS2_initVar = 1u; /* Component initialized */
 116              		.loc 1 38 0
 117 000c 0122     		movs	r2, #1
 118 000e 014B     		ldr	r3, .L12
 119 0010 1A70     		strb	r2, [r3]
 120              	.L9:
 121 0012 08BD     		pop	{r3, pc}
 122              	.L13:
 123              		.align	2
 124              	.L12:
 125 0014 00000000 		.word	PS2_initVar
 126              		.cfi_endproc
 127              	.LFE2:
 128              		.size	PS2_Start, .-PS2_Start
 129              		.section	.text.PS2_DetectDevice,"ax",%progbits
 130              		.align	2
 131              		.global	PS2_DetectDevice
 132              		.thumb
 133              		.thumb_func
ARM GAS  C:\Users\addis\AppData\Local\Temp\ccmHqk3Q.s 			page 4


 134              		.type	PS2_DetectDevice, %function
 135              	PS2_DetectDevice:
 136              	.LFB3:
  39:.\Generated_Source\PSoC5/PS2_ps2.c ****     }
  40:.\Generated_Source\PSoC5/PS2_ps2.c **** }
  41:.\Generated_Source\PSoC5/PS2_ps2.c **** 
  42:.\Generated_Source\PSoC5/PS2_ps2.c **** uint8 PS2_DetectDevice(void) 
  43:.\Generated_Source\PSoC5/PS2_ps2.c **** {
 137              		.loc 1 43 0
 138              		.cfi_startproc
 139              		@ args = 0, pretend = 0, frame = 0
 140              		@ frame_needed = 0, uses_anonymous_args = 0
 141 0000 10B5     		push	{r4, lr}
 142              		.cfi_def_cfa_offset 8
 143              		.cfi_offset 4, -8
 144              		.cfi_offset 14, -4
  44:.\Generated_Source\PSoC5/PS2_ps2.c ****     PS2_TIMER_START(200); // Set a timer for 1000ms
 145              		.loc 1 44 0
 146 0002 0022     		movs	r2, #0
 147 0004 154B     		ldr	r3, .L22
 148 0006 1A70     		strb	r2, [r3]
 149 0008 C820     		movs	r0, #200
 150 000a FFF7FEFF 		bl	PS2_Timer_WritePeriod
 151              	.LVL5:
 152 000e FFF7FEFF 		bl	PS2_Timer_Start
 153              	.LVL6:
  45:.\Generated_Source\PSoC5/PS2_ps2.c ****     
  46:.\Generated_Source\PSoC5/PS2_ps2.c ****     PS2_READ; // Make sure the state machine knows to read
 154              		.loc 1 46 0
 155 0012 FFF7FEFF 		bl	PS2_controlReg_Read
 156              	.LVL7:
 157 0016 00F0FD00 		and	r0, r0, #253
 158 001a FFF7FEFF 		bl	PS2_controlReg_Write
 159              	.LVL8:
 160              	.L16:
  47:.\Generated_Source\PSoC5/PS2_ps2.c ****     
  48:.\Generated_Source\PSoC5/PS2_ps2.c ****     while (PS2_STATUS == PS2_STATUS_PENDING && !PS2_counter_trigger); // Wait until timeout or some
 161              		.loc 1 48 0 discriminator 2
 162 001e FFF7FEFF 		bl	PS2_statusReg_Read
 163              	.LVL9:
 164 0022 18B9     		cbnz	r0, .L15
 165              		.loc 1 48 0 is_stmt 0 discriminator 1
 166 0024 0D4B     		ldr	r3, .L22
 167 0026 1B78     		ldrb	r3, [r3]	@ zero_extendqisi2
 168 0028 002B     		cmp	r3, #0
 169 002a F8D0     		beq	.L16
 170              	.L15:
  49:.\Generated_Source\PSoC5/PS2_ps2.c ****     if (PS2_STATUS == PS2_STATUS_DONE)
 171              		.loc 1 49 0 is_stmt 1
 172 002c FFF7FEFF 		bl	PS2_statusReg_Read
 173              	.LVL10:
 174 0030 0446     		mov	r4, r0
 175 0032 0128     		cmp	r0, #1
 176 0034 07D1     		bne	.L17
  50:.\Generated_Source\PSoC5/PS2_ps2.c ****     {
  51:.\Generated_Source\PSoC5/PS2_ps2.c ****         CyDelay(1); // Delay one millisecond to give the status register time to update
 177              		.loc 1 51 0
ARM GAS  C:\Users\addis\AppData\Local\Temp\ccmHqk3Q.s 			page 5


 178 0036 0120     		movs	r0, #1
 179 0038 FFF7FEFF 		bl	CyDelay
 180              	.LVL11:
  52:.\Generated_Source\PSoC5/PS2_ps2.c ****         if (PS2_BYTE_R == 0xAA)
 181              		.loc 1 52 0
 182 003c FFF7FEFF 		bl	PS2_dataOut_Read
 183              	.LVL12:
 184 0040 AA28     		cmp	r0, #170
 185 0042 06D1     		bne	.L19
 186 0044 08E0     		b	.L18
 187              	.L17:
  53:.\Generated_Source\PSoC5/PS2_ps2.c ****         {
  54:.\Generated_Source\PSoC5/PS2_ps2.c ****             //PS2_TIMER_START(4); // Set a timer for 20ms; mouse sends ID packet within 20ms of BAT
  55:.\Generated_Source\PSoC5/PS2_ps2.c ****             //PS2_READ; // Make sure the state machine knows to read
  56:.\Generated_Source\PSoC5/PS2_ps2.c ****             
  57:.\Generated_Source\PSoC5/PS2_ps2.c ****             return PS2_SUCCESS;
  58:.\Generated_Source\PSoC5/PS2_ps2.c ****         }
  59:.\Generated_Source\PSoC5/PS2_ps2.c ****         else
  60:.\Generated_Source\PSoC5/PS2_ps2.c ****         {
  61:.\Generated_Source\PSoC5/PS2_ps2.c ****             return PS2_BAD_BAT;   
  62:.\Generated_Source\PSoC5/PS2_ps2.c ****         }
  63:.\Generated_Source\PSoC5/PS2_ps2.c ****         return PS2_BYTE_R;
  64:.\Generated_Source\PSoC5/PS2_ps2.c ****     }
  65:.\Generated_Source\PSoC5/PS2_ps2.c ****     else if (PS2_STATUS == PS2_STATUS_ERROR)
 188              		.loc 1 65 0
 189 0046 FFF7FEFF 		bl	PS2_statusReg_Read
 190              	.LVL13:
 191 004a 0228     		cmp	r0, #2
 192 004c 03D1     		bne	.L20
  66:.\Generated_Source\PSoC5/PS2_ps2.c ****     {
  67:.\Generated_Source\PSoC5/PS2_ps2.c ****         return PS2_ERROR;
 193              		.loc 1 67 0
 194 004e 0524     		movs	r4, #5
 195 0050 02E0     		b	.L18
 196              	.L19:
  61:.\Generated_Source\PSoC5/PS2_ps2.c ****         }
 197              		.loc 1 61 0
 198 0052 0324     		movs	r4, #3
 199 0054 00E0     		b	.L18
 200              	.L20:
  68:.\Generated_Source\PSoC5/PS2_ps2.c ****     }
  69:.\Generated_Source\PSoC5/PS2_ps2.c ****     else
  70:.\Generated_Source\PSoC5/PS2_ps2.c ****         return PS2_TIMEOUT;
 201              		.loc 1 70 0
 202 0056 0424     		movs	r4, #4
 203              	.L18:
  71:.\Generated_Source\PSoC5/PS2_ps2.c **** }
 204              		.loc 1 71 0
 205 0058 2046     		mov	r0, r4
 206 005a 10BD     		pop	{r4, pc}
 207              	.L23:
 208              		.align	2
 209              	.L22:
 210 005c 00000000 		.word	PS2_counter_trigger
 211              		.cfi_endproc
 212              	.LFE3:
 213              		.size	PS2_DetectDevice, .-PS2_DetectDevice
ARM GAS  C:\Users\addis\AppData\Local\Temp\ccmHqk3Q.s 			page 6


 214              		.comm	PS2_initVar,1,1
 215              		.comm	PS2_counter_trigger,1,1
 216              		.text
 217              	.Letext0:
 218              		.file 2 ".\\Generated_Source\\PSoC5\\cytypes.h"
 219              		.file 3 ".\\Generated_Source\\PSoC5\\PS2_Timer.h"
 220              		.file 4 ".\\Generated_Source\\PSoC5\\PS2_Timer_ISR.h"
 221              		.file 5 ".\\Generated_Source\\PSoC5\\PS2_controlReg.h"
 222              		.file 6 ".\\Generated_Source\\PSoC5\\PS2_statusReg.h"
 223              		.file 7 ".\\Generated_Source\\PSoC5\\CyLib.h"
 224              		.file 8 ".\\Generated_Source\\PSoC5\\PS2_dataOut.h"