 0000                   cpu LMM
                        .module main.c
                        .area text(rom, con, rel)
 0000                   .dbfile ./main.c
                        .area data(ram, con, rel)
 0000                   .dbfile ./main.c
 0000           _rubout:
 0000 0820              .byte 8,32
 0002 0800              .byte 8,0
 0004                   .dbfile C:\Users\addis\Desktop\ECE381\RS2322\RS2322\main.c
 0004                   .dbsym s rubout _rubout A[4:4]c
                        .area data(ram, con, rel)
 0000                   .dbfile C:\Users\addis\Desktop\ECE381\RS2322\RS2322\main.c
                        .area text(rom, con, rel)
 0000                   .dbfile C:\Users\addis\Desktop\ECE381\RS2322\RS2322\main.c
 0000                   .dbfunc e GetNumber _GetNumber fc
 0000           ;              c -> X+0
 0000           ;            max -> X-5
 0000           ;            min -> X-4
 0000           _GetNumber::
 0000                   .dbline -1
 0000 10                push X
 0001 4F                mov X,SP
 0002 3801              add SP,1
 0004                   .dbline 16
 0004           ; //----------------------------------------------------------------------------
 0004           ; // C main line
 0004           ; //----------------------------------------------------------------------------
 0004           ; 
 0004           ; #include <m8c.h>        // part specific constants and macros
 0004           ; #include "PSoCAPI.h"    // PSoC API definitions for all User Modules
 0004           ; #include "string.h"
 0004           ; 
 0004           ; static char rubout[4] = { 0x08, 0x20, 0x08, 0x00 }; // Rubout Sequence consists of Backspace Space Backspace. This is the null-terminated string
 0004           ; 
 0004           ; char str[4][17]; // Multi-dimensional array of 4 strings with a length of 17
 0004           ; 
 0004           ; // This function reads characters from the serial until a character is entered that is within the min & max ASCII characters.
 0004           ; // That character is returned
 0004           ; char GetNumber(char min, char max)
 0004           ; {
 0004 8034              xjmp L3
 0006           L2:
 0006                   .dbline 20
 0006           ;       char c;
 0006           ;       
 0006           ;       while (1)
 0006           ;       {
 0006                   .dbline 21
 0006           ;               c = UART_cReadChar(); // Read the character
 0006 10                push X
 0007 7C0000            xcall _UART_cReadChar
 000A 20                pop X
 000B 62D000            mov REG[0xd0],>__r0
 000E 5400              mov [X+0],A
 0010                   .dbline 22
 0010           ;               if (c < ('0' + min) || c > ('0' + max)) // If the character is not within min to max range, continue the loop
 0010 52FC              mov A,[X-4]
 0012 0130              add A,48
 0014 5300              mov [__r0],A
 0016 5200              mov A,[X+0]
 0018 3A00              cmp A,[__r0]
 001A C00C              jc L7
 001C           X1:
 001C 62D000            mov REG[0xd0],>__r0
 001F 52FB              mov A,[X-5]
 0021 0130              add A,48
 0023 3B00              cmp A,[X+0]
 0025 D003              jnc L5
 0027           X2:
 0027           L7:
 0027                   .dbline 23
 0027           ;                       continue;
 0027 8011              xjmp L3
 0029           L5:
 0029                   .dbline 25
 0029           ;               
 0029           ;               UART_PutChar(c); // Put the character on the serial
 0029 10                push X
 002A 5200              mov A,[X+0]
 002C 7C0000            xcall _UART_PutChar
 002F 20                pop X
 0030                   .dbline 26
 0030           ;               return (c - '0'); // This returns the integer number entered instead of the ASCII value
 0030 62D000            mov REG[0xd0],>__r0
 0033 5200              mov A,[X+0]
 0035 1130              sub A,48
 0037 8003              xjmp L1
 0039           L3:
 0039                   .dbline 19
 0039 8FCC              xjmp L2
 003B           X0:
 003B                   .dbline -2
 003B           L1:
 003B 38FF              add SP,-1
 003D 20                pop X
 003E                   .dbline 0 ; func end
 003E 7F                ret
 003F                   .dbsym l c 0 c
 003F                   .dbsym l max -5 c
 003F                   .dbsym l min -4 c
 003F                   .dbend
 003F                   .dbfunc e GetLine _GetLine fV
 003F           ;         strPos -> X+1
 003F           ;              c -> X+0
 003F           ;      bufferLen -> X-6
 003F           ;         buffer -> X-5
 003F           _GetLine::
 003F                   .dbline -1
 003F 10                push X
 0040 4F                mov X,SP
 0041 3802              add SP,2
 0043                   .dbline 34
 0043           ;       }
 0043           ;       
 0043           ;       return 0;
 0043           ; }
 0043           ; 
 0043           ; // This function get's a line of text. It writes data into buffer with a maximum size of bufferLen. The function returns when enter is pressed
 0043           ; void GetLine(char *buffer, char bufferLen)
 0043           ; {
 0043                   .dbline 36
 0043           ;       char c;
 0043           ;       char strPos = 0; // Current position in the string
 0043 560100            mov [X+1],0
 0046 808F              xjmp L10
 0048           L9:
 0048                   .dbline 39
 0048           ;       
 0048           ;       while (1)
 0048           ;       {
 0048                   .dbline 40
 0048           ;               c = UART_cReadChar(); // Read the character
 0048 10                push X
 0049 7C0000            xcall _UART_cReadChar
 004C 20                pop X
 004D 62D000            mov REG[0xd0],>__r0
 0050 5400              mov [X+0],A
 0052                   .dbline 42
 0052           ;               
 0052           ;               if (c == 0x08 || c == 0x7F) // Delete or backspace pressed
 0052 3D0008            cmp [X+0],8
 0055 A006              jz L14
 0057 3D007F            cmp [X+0],127
 005A B017              jnz L12
 005C           L14:
 005C                   .dbline 44
 005C           ;               {
 005C           ;                       if (strPos > 0) // Only delete if there are characters to delete
 005C                   .dbline 44
 005C 5000              mov A,0
 005E 3B01              cmp A,[X+1]
 0060 D075              jnc L13
 0062           X4:
 0062                   .dbline 46
 0062           ;                       {
 0062           ;                               strPos--; // Set the position back one
 0062                   .dbline 46
 0062 7B01              dec [X+1]
 0064                   .dbline 47
 0064           ;                               UART_PutString(rubout); // Sends the rubout sequence to the serial.
 0064 10                push X
 0065 5000              mov A,>_rubout
 0067 08                push A
 0068 5000              mov A,<_rubout
 006A 5C                mov X,A
 006B 18                pop A
 006C 7C0000            xcall _UART_PutString
 006F 20                pop X
 0070                   .dbline 48
 0070           ;                       }
 0070                   .dbline 49
 0070           ;               }
 0070 8065              xjmp L13
 0072           L12:
 0072                   .dbline 50
 0072           ;               else if (c == 0x0D) // Newline enter is pressed
 0072 3D000D            cmp [X+0],13
 0075 B022              jnz L17
 0077                   .dbline 52
 0077           ;               {
 0077           ;                       buffer[strPos] = 0x00;
 0077                   .dbline 52
 0077 62D000            mov REG[0xd0],>__r0
 007A 5201              mov A,[X+1]
 007C 5300              mov [__r1],A
 007E 550000            mov [__r0],0
 0081 52FC              mov A,[X-4]
 0083 0400              add [__r1],A
 0085 52FB              mov A,[X-5]
 0087 0C00              adc [__r0],A
 0089 5100              mov A,[__r0]
 008B 60D5              mov REG[0xd5],A
 008D 5000              mov A,0
 008F 3F00              mvi [__r1],A
 0091                   .dbline 53
 0091           ;                       UART_PutCRLF(); // Go to another line
 0091 10                push X
 0092 7C0000            xcall _UART_PutCRLF
 0095 20                pop X
 0096                   .dbline 54
 0096           ;                       break;
 0096 8041              xjmp L8
 0098           L17:
 0098                   .dbline 56
 0098           ;               }
 0098           ;               else if (c >= 0x20 && c < 0x7F) // Only echo valid characters to the string. These are any alphabet, numeric, or symbols
 0098 3D0020            cmp [X+0],32
 009B C03A              jc L19
 009D           X5:
 009D 3D007F            cmp [X+0],127
 00A0 D035              jnc L19
 00A2           X6:
 00A2                   .dbline 58
 00A2           ;               {
 00A2           ;                       if (strPos < bufferLen) // If there is space in the buffer
 00A2                   .dbline 58
 00A2 5201              mov A,[X+1]
 00A4 3BFA              cmp A,[X-6]
 00A6 D028              jnc L21
 00A8           X7:
 00A8                   .dbline 60
 00A8           ;                       {
 00A8           ;                               buffer[strPos++] = c; // Set the current character in buffer to c and then increment strPos
 00A8                   .dbline 60
 00A8 62D000            mov REG[0xd0],>__r0
 00AB 5201              mov A,[X+1]
 00AD 5300              mov [__r1],A
 00AF 550000            mov [__r0],0
 00B2 0101              add A,1
 00B4 5401              mov [X+1],A
 00B6 52FC              mov A,[X-4]
 00B8 0400              add [__r1],A
 00BA 52FB              mov A,[X-5]
 00BC 0C00              adc [__r0],A
 00BE 5100              mov A,[__r0]
 00C0 60D5              mov REG[0xd5],A
 00C2 5200              mov A,[X+0]
 00C4 3F00              mvi [__r1],A
 00C6                   .dbline 61
 00C6           ;                               UART_PutChar(c); // Send the character to the computer
 00C6 10                push X
 00C7 5200              mov A,[X+0]
 00C9 7C0000            xcall _UART_PutChar
 00CC 20                pop X
 00CD                   .dbline 62
 00CD           ;                       }
 00CD 8008              xjmp L22
 00CF           L21:
 00CF                   .dbline 64
 00CF           ;                       else
 00CF           ;                               UART_PutChar(0x07); // Send BEL key because there is no more space left to add to the string
 00CF 10                push X
 00D0 5007              mov A,7
 00D2 7C0000            xcall _UART_PutChar
 00D5 20                pop X
 00D6           L22:
 00D6                   .dbline 65
 00D6           ;               }
 00D6           L19:
 00D6           L13:
 00D6                   .dbline 66
 00D6           ;       }
 00D6           L10:
 00D6                   .dbline 38
 00D6 8F71              xjmp L9
 00D8           X3:
 00D8                   .dbline -2
 00D8           L8:
 00D8 38FE              add SP,-2
 00DA 20                pop X
 00DB                   .dbline 0 ; func end
 00DB 7F                ret
 00DC                   .dbsym l strPos 1 c
 00DC                   .dbsym l c 0 c
 00DC                   .dbsym l bufferLen -6 c
 00DC                   .dbsym l buffer -5 pc
 00DC                   .dbend
 00DC                   .dbfunc e main _main fV
 00DC           ;            opt -> X+0
 00DC           _main::
 00DC                   .dbline -1
 00DC 10                push X
 00DD 4F                mov X,SP
 00DE 3803              add SP,3
 00E0                   .dbline 71
 00E0           ;       return;
 00E0           ; }
 00E0           ; 
 00E0           ; void main(void)
 00E0           ; {
 00E0                   .dbline 75
 00E0           ;       char opt;
 00E0           ;       
 00E0           ;       // Start the LCD, UART(with no parity), and Counter16
 00E0           ;       LCD_Start();
 00E0 10                push X
 00E1 7C0000            xcall _LCD_Start
 00E4                   .dbline 76
 00E4           ;       UART_Start(UART_PARITY_NONE);
 00E4 5000              mov A,0
 00E6 7C0000            xcall _UART_Start
 00E9                   .dbline 77
 00E9           ;       Counter16_Start();
 00E9 7C0000            xcall _Counter16_Start
 00EC 20                pop X
 00ED                   .dbline 79
 00ED           ;       
 00ED           ;       memset(str, 0x00, 17 * 4); // Initialize all four strings to 0x00
 00ED 5000              mov A,0
 00EF 08                push A
 00F0 5044              mov A,68
 00F2 08                push A
 00F3 5000              mov A,0
 00F5 08                push A
 00F6 08                push A
 00F7 5000              mov A,>_str
 00F9 08                push A
 00FA 5000              mov A,<_str
 00FC 08                push A
 00FD 7C0000            xcall _memsetLMM
 0100 38FA              add SP,-6
 0102 8166              xjmp L25
 0104           L24:
 0104                   .dbline 82
 0104           ;       
 0104           ;       while (1)
 0104           ;       {
 0104                   .dbline 84
 0104           ;               // \r\n is a CRLF \t is a tab. This prints out prompting user what to do
 0104           ;               UART_CPutString("What would you like to do?\r\n\t1. Write to string\r\n\t2. Print to screen\r\n\t3. Print to LCD\r\n");
 0104 10                push X
 0105 5062              mov A,>L27
 0107 08                push A
 0108 5062              mov A,<L27
 010A 5C                mov X,A
 010B 18                pop A
 010C 7C0000            xcall _UART_CPutString
 010F 20                pop X
 0110                   .dbline 85
 0110           ;               opt = GetNumber(1, 3); // Basically retrieves which option to do
 0110 5003              mov A,3
 0112 08                push A
 0113 5001              mov A,1
 0115 08                push A
 0116 9EE8              xcall _GetNumber
 0118 38FE              add SP,-2
 011A 62D000            mov REG[0xd0],>__r0
 011D 5400              mov [X+0],A
 011F                   .dbline 86
 011F           ;               UART_PutCRLF(); // Goes to a new line on serial console.  Used frequently to make the prompting look 'pretty'
 011F 10                push X
 0120 7C0000            xcall _UART_PutCRLF
 0123 20                pop X
 0124                   .dbline 88
 0124           ;               
 0124           ;               switch (opt)
 0124 5200              mov A,[X+0]
 0126 5402              mov [X+2],A
 0128 560100            mov [X+1],0
 012B 3D0100            cmp [X+1],0
 012E B006              jnz X9
 0130 3D0201            cmp [X+2],1
 0133 A017              jz L31
 0135           X9:
 0135 3D0100            cmp [X+1],0
 0138 B006              jnz X10
 013A 3D0202            cmp [X+2],2
 013D A067              jz L33
 013F           X10:
 013F 3D0100            cmp [X+1],0
 0142 B006              jnz X11
 0144 3D0203            cmp [X+2],3
 0147 A0B7              jz L35
 0149           X11:
 0149 811F              xjmp L28
 014B           L31:
 014B                   .dbline 91
 014B           ;               {
 014B           ;                       case 1: // Write to string option
 014B           ;                               UART_CPutString("Which string would you like to write to: "); 
 014B 10                push X
 014C 5038              mov A,>L32
 014E 08                push A
 014F 5038              mov A,<L32
 0151 5C                mov X,A
 0152 18                pop A
 0153 7C0000            xcall _UART_CPutString
 0156 20                pop X
 0157                   .dbline 92
 0157           ;                               opt = GetNumber(0, 3); // Ask which string to edit
 0157 5003              mov A,3
 0159 08                push A
 015A 5000              mov A,0
 015C 08                push A
 015D 9EA1              xcall _GetNumber
 015F 38FE              add SP,-2
 0161 62D000            mov REG[0xd0],>__r0
 0164 5400              mov [X+0],A
 0166                   .dbline 93
 0166           ;                               UART_PutCRLF();
 0166 10                push X
 0167 7C0000            xcall _UART_PutCRLF
 016A 20                pop X
 016B                   .dbline 95
 016B           ;                               
 016B           ;                               GetLine(str[opt], 16); // Allow the user to change the string
 016B 5010              mov A,16
 016D 08                push A
 016E 62D000            mov REG[0xd0],>__r0
 0171 5200              mov A,[X+0]
 0173 5300              mov [__r1],A
 0175 5000              mov A,0
 0177 08                push A
 0178 5100              mov A,[__r1]
 017A 08                push A
 017B 5000              mov A,0
 017D 08                push A
 017E 5011              mov A,17
 0180 08                push A
 0181 7C0000            xcall __mul16
 0184 38FC              add SP,-4
 0186 5100              mov A,[__rX]
 0188 5300              mov [__r1],A
 018A 5100              mov A,[__rY]
 018C 5300              mov [__r0],A
 018E 060000            add [__r1],<_str
 0191 0E0000            adc [__r0],>_str
 0194 5100              mov A,[__r0]
 0196 08                push A
 0197 5100              mov A,[__r1]
 0199 08                push A
 019A 9EA3              xcall _GetLine
 019C 38FD              add SP,-3
 019E                   .dbline 96
 019E           ;                               UART_PutCRLF();
 019E 10                push X
 019F 7C0000            xcall _UART_PutCRLF
 01A2 20                pop X
 01A3                   .dbline 97
 01A3           ;                               break;
 01A3 80C5              xjmp L29
 01A5           L33:
 01A5                   .dbline 100
 01A5           ;                       
 01A5           ;                       case 2: // Print to screen option
 01A5           ;                               UART_CPutString("Which string would you like to print: ");
 01A5 10                push X
 01A6 5011              mov A,>L34
 01A8 08                push A
 01A9 5011              mov A,<L34
 01AB 5C                mov X,A
 01AC 18                pop A
 01AD 7C0000            xcall _UART_CPutString
 01B0 20                pop X
 01B1                   .dbline 101
 01B1           ;                               opt = GetNumber(0, 3); // Ask which string to print
 01B1 5003              mov A,3
 01B3 08                push A
 01B4 5000              mov A,0
 01B6 08                push A
 01B7 9E47              xcall _GetNumber
 01B9 38FE              add SP,-2
 01BB 62D000            mov REG[0xd0],>__r0
 01BE 5400              mov [X+0],A
 01C0                   .dbline 102
 01C0           ;                               UART_PutCRLF();
 01C0 10                push X
 01C1 7C0000            xcall _UART_PutCRLF
 01C4 20                pop X
 01C5                   .dbline 103
 01C5           ;                               UART_PutString(str[opt]); // Print selected string to UART
 01C5 62D000            mov REG[0xd0],>__r0
 01C8 5200              mov A,[X+0]
 01CA 5300              mov [__r1],A
 01CC 5000              mov A,0
 01CE 08                push A
 01CF 5100              mov A,[__r1]
 01D1 08                push A
 01D2 5000              mov A,0
 01D4 08                push A
 01D5 5011              mov A,17
 01D7 08                push A
 01D8 7C0000            xcall __mul16
 01DB 38FC              add SP,-4
 01DD 5100              mov A,[__rX]
 01DF 5300              mov [__r1],A
 01E1 5100              mov A,[__rY]
 01E3 5300              mov [__r0],A
 01E5 060000            add [__r1],<_str
 01E8 0E0000            adc [__r0],>_str
 01EB 10                push X
 01EC 5100              mov A,[__r0]
 01EE 08                push A
 01EF 5100              mov A,[__r1]
 01F1 5C                mov X,A
 01F2 18                pop A
 01F3 7C0000            xcall _UART_PutString
 01F6                   .dbline 104
 01F6           ;                               UART_PutCRLF();
 01F6 7C0000            xcall _UART_PutCRLF
 01F9                   .dbline 105
 01F9           ;                               UART_PutCRLF();
 01F9 7C0000            xcall _UART_PutCRLF
 01FC 20                pop X
 01FD                   .dbline 106
 01FD           ;                               break;
 01FD 806B              xjmp L29
 01FF           L35:
 01FF                   .dbline 109
 01FF           ;                       
 01FF           ;                       case 3: // Print to LCD option
 01FF           ;                               UART_CPutString("Which string would you like to print: "); 
 01FF 10                push X
 0200 5011              mov A,>L34
 0202 08                push A
 0203 5011              mov A,<L34
 0205 5C                mov X,A
 0206 18                pop A
 0207 7C0000            xcall _UART_CPutString
 020A 20                pop X
 020B                   .dbline 110
 020B           ;                               opt = GetNumber(0, 3); // Ask which string to print
 020B 5003              mov A,3
 020D 08                push A
 020E 5000              mov A,0
 0210 08                push A
 0211 9DED              xcall _GetNumber
 0213 38FE              add SP,-2
 0215 62D000            mov REG[0xd0],>__r0
 0218 5400              mov [X+0],A
 021A                   .dbline 111
 021A           ;                               UART_PutCRLF();
 021A 10                push X
 021B 7C0000            xcall _UART_PutCRLF
 021E                   .dbline 113
 021E           ;                               
 021E           ;                               LCD_Position(1, 0);
 021E 5700              mov X,0
 0220 5001              mov A,1
 0222 7C0000            xcall _LCD_Position
 0225                   .dbline 114
 0225           ;                               LCD_PrCString("                "); // Clear out old value in LCD
 0225 5000              mov A,>L36
 0227 08                push A
 0228 5000              mov A,<L36
 022A 5C                mov X,A
 022B 18                pop A
 022C 7C0000            xcall _LCD_PrCString
 022F                   .dbline 115
 022F           ;                               LCD_Position(1, 0);
 022F 5700              mov X,0
 0231 5001              mov A,1
 0233 7C0000            xcall _LCD_Position
 0236 20                pop X
 0237                   .dbline 116
 0237           ;                               LCD_PrString(str[opt]); // Print selected string to LCD
 0237 62D000            mov REG[0xd0],>__r0
 023A 5200              mov A,[X+0]
 023C 5300              mov [__r1],A
 023E 5000              mov A,0
 0240 08                push A
 0241 5100              mov A,[__r1]
 0243 08                push A
 0244 5000              mov A,0
 0246 08                push A
 0247 5011              mov A,17
 0249 08                push A
 024A 7C0000            xcall __mul16
 024D 38FC              add SP,-4
 024F 5100              mov A,[__rX]
 0251 5300              mov [__r1],A
 0253 5100              mov A,[__rY]
 0255 5300              mov [__r0],A
 0257 060000            add [__r1],<_str
 025A 0E0000            adc [__r0],>_str
 025D 10                push X
 025E 5100              mov A,[__r0]
 0260 08                push A
 0261 5100              mov A,[__r1]
 0263 5C                mov X,A
 0264 18                pop A
 0265 7C0000            xcall _LCD_PrString
 0268 20                pop X
 0269                   .dbline 117
 0269           ;                               break;
 0269           L28:
 0269           L29:
 0269                   .dbline 119
 0269           ;               }
 0269           ;       }
 0269           L25:
 0269                   .dbline 81
 0269 8E9A              xjmp L24
 026B           X8:
 026B                   .dbline -2
 026B           L23:
 026B 38FD              add SP,-3
 026D 20                pop X
 026E                   .dbline 0 ; func end
 026E 8FFF              jmp .
 0270                   .dbsym l opt 0 c
 0270                   .dbend
                        .area data(ram, con, rel)
 0000                   .dbfile C:\Users\addis\Desktop\ECE381\RS2322\RS2322\main.c
 0000           _str::
 0000 000000000000000000000000000000000000000000000000000000000000000000000000000000000000000000000000000000000000000000000000  .word 0,0,0,0,0,0,0,0,0,0,0,0,0,0,0,0,0,0,0,0,0,0,0,0,0,0,0,0,0,0
 003C 0000000000000000  .byte 0,0,0,0,0,0,0,0
 0044                   .dbsym e str _str A[68:4:17]c
                        .area lit(rom, con, rel, lit)
 0000           L36:
 0000 20202020202020202020202020202020  .byte 32,32,32,32,32,32,32,32,32,32,32,32,32,32,32,32
 0010 00                .byte 0
 0011           L34:
 0011 576869636820737472696E6720776F75  .byte 'W,'h,'i,'c,'h,32,'s,'t,'r,'i,'n,'g,32,'w,'o,'u
 0021 6C6420796F75206C696B6520746F2070  .byte 'l,'d,32,'y,'o,'u,32,'l,'i,'k,'e,32,'t,'o,32,'p
 0031 72696E743A2000    .byte 'r,'i,'n,'t,58,32,0
 0038           L32:
 0038 576869636820737472696E6720776F75  .byte 'W,'h,'i,'c,'h,32,'s,'t,'r,'i,'n,'g,32,'w,'o,'u
 0048 6C6420796F75206C696B6520746F2077  .byte 'l,'d,32,'y,'o,'u,32,'l,'i,'k,'e,32,'t,'o,32,'w
 0058 7269746520746F3A2000      .byte 'r,'i,'t,'e,32,'t,'o,58,32,0
 0062           L27:
 0062 5768617420776F756C6420796F75206C  .byte 'W,'h,'a,'t,32,'w,'o,'u,'l,'d,32,'y,'o,'u,32,'l
 0072 696B6520746F20646F3F0D0A09312E20  .byte 'i,'k,'e,32,'t,'o,32,'d,'o,63,13,10,9,49,46,32
 0082 577269746520746F20737472696E670D  .byte 'W,'r,'i,'t,'e,32,'t,'o,32,'s,'t,'r,'i,'n,'g,13
 0092 0A09322E205072696E7420746F207363  .byte 10,9,50,46,32,'P,'r,'i,'n,'t,32,'t,'o,32,'s,'c
 00A2 7265656E0D0A09332E205072696E7420  .byte 'r,'e,'e,'n,13,10,9,51,46,32,'P,'r,'i,'n,'t,32
 00B2 746F204C43440D0A00        .byte 't,'o,32,'L,'C,'D,13,10,0
